Certificate:
    Data:
        Version: 3 (0x2)
        Serial Number: 1 (0x1)
        Signature Algorithm: md5WithRSAEncryption
        Issuer: C=US, ST=NC, L=CALIFORNIA, O=OSCM, CN=vpc_VPN/emailAddress=support@os-cm.info
        Validity
            Not Before: May 28 13:10:47 2012 GMT
            Not After : May 26 13:10:47 2022 GMT
        Subject: C=US, ST=NC, O=OSCM, CN=vpc_VPN/emailAddress=support@os-cm.info
        Subject Public Key Info:
            Public Key Algorithm: rsaEncryption
                Public-Key: (1024 bit)
                Modulus:
                    00:af:e6:16:bb:99:ec:e6:02:2d:b1:93:6c:4b:5f:
                    89:3b:77:ca:4f:cc:e2:63:55:21:73:80:76:b4:0d:
                    1c:c7:b4:5e:71:67:8b:e4:cd:b7:fe:09:27:46:ac:
                    53:2f:47:59:7c:6c:57:5c:8d:78:2c:59:1e:53:1f:
                    f8:ec:45:99:ed:41:29:6a:bb:76:13:59:94:54:4c:
                    a9:15:44:ed:37:43:d0:e8:04:c2:79:1b:cd:37:6f:
                    c3:57:73:2b:44:b3:97:1d:bc:a3:cd:a5:a2:9c:09:
                    6a:1c:9e:e2:4a:52:51:36:ed:0a:a9:8b:42:0d:4a:
                    b5:47:3f:d5:c3:bf:69:a2:9b
                Exponent: 65537 (0x10001)
        X509v3 extensions:
            X509v3 Basic Constraints: 
                CA:FALSE
            Netscape Cert Type: 
                SSL Server
            Netscape Comment: 
                OpenSSL Generated Server Certificate
            X509v3 Subject Key Identifier: 
                1C:71:92:84:3E:CE:9B:94:47:00:2A:E7:AF:03:11:CF:96:19:80:22
            X509v3 Authority Key Identifier: 
                keyid:30:D0:C5:44:8A:CB:88:D3:EC:18:54:33:A9:C4:79:3B:EA:1A:61:44
                DirName:/C=US/ST=NC/L=CALIFORNIA/O=OSCM/CN=vpc_VPN/emailAddress=support@os-cm.info
                serial:80:8B:6F:BB:7F:14:9B:87

    Signature Algorithm: md5WithRSAEncryption
        54:6d:02:39:73:06:71:21:83:f1:ee:41:31:64:1d:9e:46:e2:
        8b:af:a2:3b:c1:6c:cc:dc:86:78:83:9f:09:95:ae:17:b8:62:
        b5:67:d1:9c:c0:bc:0d:12:5a:8f:34:05:e7:aa:f8:0d:35:df:
        ed:87:84:fa:8f:4f:05:dc:51:58:92:22:48:a9:f1:5e:1b:d4:
        2e:b7:ba:b6:19:a0:9d:cb:b0:05:14:e1:12:d0:f4:44:c7:68:
        57:0d:98:f5:a2:5f:68:c8:00:c6:d1:26:0a:b9:15:96:7e:f1:
        64:d2:8c:28:57:38:fe:c2:14:7d:07:80:37:f2:df:be:a4:93:
        4a:8d
-----BEGIN CERTIFICATE-----
MIIDZzCCAtCgAwIBAgIBATANBgkqhkiG9w0BAQQFADBzMQswCQYDVQQGEwJVUzEL
MAkGA1UECBMCTkMxEzARBgNVBAcTCkNBTElGT1JOSUExDTALBgNVBAoTBE9TQ00x
EDAOBgNVBAMUB3ZwY19WUE4xITAfBgkqhkiG9w0BCQEWEnN1cHBvcnRAb3MtY20u
aW5mbzAeFw0xMjA1MjgxMzEwNDdaFw0yMjA1MjYxMzEwNDdaMF4xCzAJBgNVBAYT
AlVTMQswCQYDVQQIEwJOQzENMAsGA1UEChMET1NDTTEQMA4GA1UEAxQHdnBjX1ZQ
TjEhMB8GCSqGSIb3DQEJARYSc3VwcG9ydEBvcy1jbS5pbmZvMIGfMA0GCSqGSIb3
DQEBAQUAA4GNADCBiQKBgQCv5ha7mezmAi2xk2xLX4k7d8pPzOJjVSFzgHa0DRzH
tF5xZ4vkzbf+CSdGrFMvR1l8bFdcjXgsWR5TH/jsRZntQSlqu3YTWZRUTKkVRO03
Q9DoBMJ5G803b8NXcytEs5cdvKPNpaKcCWocnuJKUlE27Qqpi0INSrVHP9XDv2mi
mwIDAQABo4IBHjCCARowCQYDVR0TBAIwADARBglghkgBhvhCAQEEBAMCBkAwMwYJ
YIZIAYb4QgENBCYWJE9wZW5TU0wgR2VuZXJhdGVkIFNlcnZlciBDZXJ0aWZpY2F0
ZTAdBgNVHQ4EFgQUHHGShD7Om5RHACrnrwMRz5YZgCIwgaUGA1UdIwSBnTCBmoAU
MNDFRIrLiNPsGFQzqcR5O+oaYUShd6R1MHMxCzAJBgNVBAYTAlVTMQswCQYDVQQI
EwJOQzETMBEGA1UEBxMKQ0FMSUZPUk5JQTENMAsGA1UEChMET1NDTTEQMA4GA1UE
AxQHdnBjX1ZQTjEhMB8GCSqGSIb3DQEJARYSc3VwcG9ydEBvcy1jbS5pbmZvggkA
gItvu38Um4cwDQYJKoZIhvcNAQEEBQADgYEAVG0COXMGcSGD8e5BMWQdnkbii6+i
O8FszNyGeIOfCZWuF7hitWfRnMC8DRJajzQF56r4DTXf7YeE+o9PBdxRWJIiSKnx
XhvULre6thmgncuwBRThEtD0RMdoVw2Y9aJfaMgAxtEmCrkVln7xZNKMKFc4/sIU
fQeAN/LfvqSTSo0=
-----END CERTIFICATE-----
