Certificate:
    Data:
        Version: 3 (0x2)
        Serial Number: 2 (0x2)
        Signature Algorithm: md5WithRSAEncryption
        Issuer: C=US, ST=NC, L=CALIFORNIA, O=OSCM, CN=vpc_VPN/emailAddress=support@os-cm.info
        Validity
            Not Before: May 28 13:18:01 2012 GMT
            Not After : May 26 13:18:01 2022 GMT
        Subject: C=US, ST=NC, O=OSCM, CN=vpc_VPN/emailAddress=support@os-cm.info
        Subject Public Key Info:
            Public Key Algorithm: rsaEncryption
                Public-Key: (1024 bit)
                Modulus:
                    00:be:a8:a4:d1:af:8a:25:4e:3c:d6:76:91:f0:58:
                    80:6c:06:a2:a8:0a:6a:f2:4e:34:cd:4c:68:76:46:
                    52:39:2b:9c:46:e3:c7:2a:ed:3f:68:66:ba:c3:78:
                    d4:5e:23:73:b4:e0:a2:44:0d:2b:5f:a4:42:3f:a6:
                    f0:bd:4b:40:68:b6:03:20:04:5a:2c:08:26:58:e6:
                    14:7f:26:23:db:72:cd:c1:72:7e:c2:f2:da:0c:ca:
                    0a:c5:87:25:26:ca:c2:a9:c7:ff:93:e2:10:b4:4e:
                    a3:6c:0f:87:ce:63:67:f9:9c:1d:01:e2:7d:76:bf:
                    87:d7:02:6e:a4:44:f1:d1:33
                Exponent: 65537 (0x10001)
        X509v3 extensions:
            X509v3 Basic Constraints: 
                CA:FALSE
            Netscape Comment: 
                OpenSSL Generated Certificate
            X509v3 Subject Key Identifier: 
                45:15:EC:9B:85:B5:48:96:68:70:9B:16:B3:46:B2:0A:7B:54:50:44
            X509v3 Authority Key Identifier: 
                keyid:30:D0:C5:44:8A:CB:88:D3:EC:18:54:33:A9:C4:79:3B:EA:1A:61:44
                DirName:/C=US/ST=NC/L=CALIFORNIA/O=OSCM/CN=vpc_VPN/emailAddress=support@os-cm.info
                serial:80:8B:6F:BB:7F:14:9B:87

    Signature Algorithm: md5WithRSAEncryption
        33:15:e9:2b:bc:d8:b8:34:19:76:0a:3f:fc:c4:49:ab:ed:a4:
        e1:b5:29:cd:0b:7e:b8:96:0e:fa:64:57:83:7f:8d:a0:d8:d3:
        46:8e:af:85:71:a0:01:1d:a1:66:84:4a:14:72:eb:52:c8:82:
        7e:78:45:45:36:db:00:1f:23:b1:82:db:be:94:89:c0:23:01:
        44:52:2c:f1:cc:29:44:62:b1:b2:41:3d:4d:ec:4d:81:2f:a6:
        80:a7:f6:a6:79:bf:d3:73:cc:4e:77:94:c7:5c:03:7f:e8:f5:
        52:a4:91:e5:f8:22:7c:b1:64:c1:5f:d2:9e:7e:91:b5:5a:53:
        10:65
-----BEGIN CERTIFICATE-----
MIIDTTCCAragAwIBAgIBAjANBgkqhkiG9w0BAQQFADBzMQswCQYDVQQGEwJVUzEL
MAkGA1UECBMCTkMxEzARBgNVBAcTCkNBTElGT1JOSUExDTALBgNVBAoTBE9TQ00x
EDAOBgNVBAMUB3ZwY19WUE4xITAfBgkqhkiG9w0BCQEWEnN1cHBvcnRAb3MtY20u
aW5mbzAeFw0xMjA1MjgxMzE4MDFaFw0yMjA1MjYxMzE4MDFaMF4xCzAJBgNVBAYT
AlVTMQswCQYDVQQIEwJOQzENMAsGA1UEChMET1NDTTEQMA4GA1UEAxQHdnBjX1ZQ
TjEhMB8GCSqGSIb3DQEJARYSc3VwcG9ydEBvcy1jbS5pbmZvMIGfMA0GCSqGSIb3
DQEBAQUAA4GNADCBiQKBgQC+qKTRr4olTjzWdpHwWIBsBqKoCmryTjTNTGh2RlI5
K5xG48cq7T9oZrrDeNReI3O04KJEDStfpEI/pvC9S0BotgMgBFosCCZY5hR/JiPb
cs3Bcn7C8toMygrFhyUmysKpx/+T4hC0TqNsD4fOY2f5nB0B4n12v4fXAm6kRPHR
MwIDAQABo4IBBDCCAQAwCQYDVR0TBAIwADAsBglghkgBhvhCAQ0EHxYdT3BlblNT
TCBHZW5lcmF0ZWQgQ2VydGlmaWNhdGUwHQYDVR0OBBYEFEUV7JuFtUiWaHCbFrNG
sgp7VFBEMIGlBgNVHSMEgZ0wgZqAFDDQxUSKy4jT7BhUM6nEeTvqGmFEoXekdTBz
MQswCQYDVQQGEwJVUzELMAkGA1UECBMCTkMxEzARBgNVBAcTCkNBTElGT1JOSUEx
DTALBgNVBAoTBE9TQ00xEDAOBgNVBAMUB3ZwY19WUE4xITAfBgkqhkiG9w0BCQEW
EnN1cHBvcnRAb3MtY20uaW5mb4IJAICLb7t/FJuHMA0GCSqGSIb3DQEBBAUAA4GB
ADMV6Su82Lg0GXYKP/zESavtpOG1Kc0LfriWDvpkV4N/jaDY00aOr4VxoAEdoWaE
ShRy61LIgn54RUU22wAfI7GC276UicAjAURSLPHMKURisbJBPU3sTYEvpoCn9qZ5
v9NzzE53lMdcA3/o9VKkkeX4InyxZMFf0p5+kbVaUxBl
-----END CERTIFICATE-----
