Certificate:
    Data:
        Version: 3 (0x2)
        Serial Number: 3 (0x3)
        Signature Algorithm: md5WithRSAEncryption
        Issuer: C=US, ST=NC, L=CALIFORNIA, O=OSCM, CN=vpc_VPN/emailAddress=support@os-cm.info
        Validity
            Not Before: Jun 26 10:45:25 2012 GMT
            Not After : Jun 24 10:45:25 2022 GMT
        Subject: C=US, ST=NC, O=OSCM, OU=IT, CN=fe/emailAddress=support@os-cm.info
        Subject Public Key Info:
            Public Key Algorithm: rsaEncryption
                Public-Key: (1024 bit)
                Modulus:
                    00:d3:17:c8:65:da:6a:75:15:fe:f3:b4:7b:cb:3e:
                    c2:a8:4d:a2:2e:7f:b8:a3:41:28:aa:62:a5:02:b0:
                    ab:04:2f:1c:20:a6:a8:13:6b:0a:84:22:58:43:7a:
                    e4:5b:ef:7a:64:74:12:9c:23:3d:45:3d:d7:7a:96:
                    e3:03:5a:dd:11:7c:14:e2:83:b4:79:97:7a:36:fa:
                    92:3a:84:79:3a:5f:b3:f6:68:35:b3:30:c3:35:c1:
                    e3:0c:75:f6:75:38:e1:39:1f:9b:0c:f3:99:84:03:
                    fa:72:2f:91:48:b6:4b:75:1a:4a:35:ee:90:cb:e9:
                    b7:d8:53:0b:79:32:60:1d:4f
                Exponent: 65537 (0x10001)
        X509v3 extensions:
            X509v3 Basic Constraints: 
                CA:FALSE
            Netscape Comment: 
                OpenSSL Generated Certificate
            X509v3 Subject Key Identifier: 
                C9:4C:C7:C6:7E:F6:8B:F1:64:B2:39:CC:17:10:93:87:47:E7:B8:D6
            X509v3 Authority Key Identifier: 
                keyid:30:D0:C5:44:8A:CB:88:D3:EC:18:54:33:A9:C4:79:3B:EA:1A:61:44
                DirName:/C=US/ST=NC/L=CALIFORNIA/O=OSCM/CN=vpc_VPN/emailAddress=support@os-cm.info
                serial:80:8B:6F:BB:7F:14:9B:87

    Signature Algorithm: md5WithRSAEncryption
        86:4b:cf:91:1f:65:51:7e:bc:ca:69:95:b2:fe:1b:b7:f3:68:
        7e:0e:d6:f8:7d:c7:ee:27:84:be:e5:f1:e3:54:29:ff:4a:c8:
        ef:d2:b9:49:71:59:cc:8c:18:33:dc:ad:ff:27:8d:b7:1c:fd:
        04:04:a1:1b:48:8b:5a:dd:30:90:c6:85:03:6a:76:14:7e:fb:
        de:da:59:20:0b:82:de:64:07:82:5a:df:2e:5a:90:5b:1d:04:
        3a:2a:d5:35:55:39:02:03:fa:b7:88:03:aa:cb:8e:fa:c1:f6:
        18:3b:57:13:82:21:ce:45:1d:12:90:0c:22:b0:64:01:d4:fa:
        40:72
-----BEGIN CERTIFICATE-----
MIIDVTCCAr6gAwIBAgIBAzANBgkqhkiG9w0BAQQFADBzMQswCQYDVQQGEwJVUzEL
MAkGA1UECBMCTkMxEzARBgNVBAcTCkNBTElGT1JOSUExDTALBgNVBAoTBE9TQ00x
EDAOBgNVBAMUB3ZwY19WUE4xITAfBgkqhkiG9w0BCQEWEnN1cHBvcnRAb3MtY20u
aW5mbzAeFw0xMjA2MjYxMDQ1MjVaFw0yMjA2MjQxMDQ1MjVaMGYxCzAJBgNVBAYT
AlVTMQswCQYDVQQIEwJOQzENMAsGA1UEChMET1NDTTELMAkGA1UECxMCSVQxCzAJ
BgNVBAMTAmZlMSEwHwYJKoZIhvcNAQkBFhJzdXBwb3J0QG9zLWNtLmluZm8wgZ8w
DQYJKoZIhvcNAQEBBQADgY0AMIGJAoGBANMXyGXaanUV/vO0e8s+wqhNoi5/uKNB
KKpipQKwqwQvHCCmqBNrCoQiWEN65FvvemR0EpwjPUU913qW4wNa3RF8FOKDtHmX
ejb6kjqEeTpfs/ZoNbMwwzXB4wx19nU44TkfmwzzmYQD+nIvkUi2S3UaSjXukMvp
t9hTC3kyYB1PAgMBAAGjggEEMIIBADAJBgNVHRMEAjAAMCwGCWCGSAGG+EIBDQQf
Fh1PcGVuU1NMIEdlbmVyYXRlZCBDZXJ0aWZpY2F0ZTAdBgNVHQ4EFgQUyUzHxn72
i/FksjnMFxCTh0fnuNYwgaUGA1UdIwSBnTCBmoAUMNDFRIrLiNPsGFQzqcR5O+oa
YUShd6R1MHMxCzAJBgNVBAYTAlVTMQswCQYDVQQIEwJOQzETMBEGA1UEBxMKQ0FM
SUZPUk5JQTENMAsGA1UEChMET1NDTTEQMA4GA1UEAxQHdnBjX1ZQTjEhMB8GCSqG
SIb3DQEJARYSc3VwcG9ydEBvcy1jbS5pbmZvggkAgItvu38Um4cwDQYJKoZIhvcN
AQEEBQADgYEAhkvPkR9lUX68ymmVsv4bt/Nofg7W+H3H7ieEvuXx41Qp/0rI79K5
SXFZzIwYM9yt/yeNtxz9BAShG0iLWt0wkMaFA2p2FH773tpZIAuC3mQHglrfLlqQ
Wx0EOirVNVU5AgP6t4gDqsuO+sH2GDtXE4IhzkUdEpAMIrBkAdT6QHI=
-----END CERTIFICATE-----
