Certificate:
    Data:
        Version: 3 (0x2)
        Serial Number: 4 (0x4)
        Signature Algorithm: md5WithRSAEncryption
        Issuer: C=US, ST=NC, L=CALIFORNIA, O=OSCM, CN=vpc_VPN/emailAddress=support@os-cm.info
        Validity
            Not Before: Jun 26 11:15:10 2012 GMT
            Not After : Jun 24 11:15:10 2022 GMT
        Subject: C=US, ST=NC, O=OSCM, CN=fe/emailAddress=support@os-cm.info
        Subject Public Key Info:
            Public Key Algorithm: rsaEncryption
                Public-Key: (1024 bit)
                Modulus:
                    00:e5:52:c6:2b:33:de:69:06:de:b2:e9:0d:44:b9:
                    c0:5e:38:7f:b9:2a:c5:fb:ac:23:ba:32:c7:dd:8f:
                    73:50:20:a5:10:c0:f9:d9:e5:81:f1:46:59:2a:1b:
                    b3:5e:83:06:02:83:69:45:89:06:e6:f7:80:2a:f5:
                    fd:87:ad:dc:a9:74:d3:54:ea:b0:4a:dc:34:ef:85:
                    14:65:07:5d:d3:94:c2:93:87:97:20:cd:cb:ce:43:
                    3a:36:bf:03:e0:dc:8d:b4:69:61:f1:4b:b3:29:1c:
                    8d:0a:68:26:6a:93:de:46:0e:16:6e:0b:02:1a:ff:
                    a2:e4:3a:db:a2:76:73:00:3f
                Exponent: 65537 (0x10001)
        X509v3 extensions:
            X509v3 Basic Constraints: 
                CA:FALSE
            Netscape Comment: 
                OpenSSL Generated Certificate
            X509v3 Subject Key Identifier: 
                72:80:82:8C:7C:94:83:66:C8:02:F4:DE:69:5B:82:A4:11:48:95:B1
            X509v3 Authority Key Identifier: 
                keyid:30:D0:C5:44:8A:CB:88:D3:EC:18:54:33:A9:C4:79:3B:EA:1A:61:44
                DirName:/C=US/ST=NC/L=CALIFORNIA/O=OSCM/CN=vpc_VPN/emailAddress=support@os-cm.info
                serial:80:8B:6F:BB:7F:14:9B:87

    Signature Algorithm: md5WithRSAEncryption
        3d:11:4c:0b:f7:38:6c:5c:88:fb:fb:3b:40:6f:47:e3:37:ff:
        9c:e5:74:43:8d:41:43:36:7e:d0:b4:9b:e5:aa:0c:59:7e:88:
        fc:7f:f0:c1:d3:57:dc:b8:6a:f0:f2:21:26:b9:ca:42:dd:3a:
        e2:e2:53:0c:c0:28:4b:0b:f2:dd:b0:3d:92:ef:eb:22:da:c5:
        1e:99:b9:a2:03:ea:1d:3a:2f:fc:a6:cc:63:d1:72:a5:21:37:
        2c:21:70:46:01:7d:4f:ea:c1:a4:a9:c8:d6:60:77:bd:e6:d1:
        05:75:7a:af:e0:d5:e1:53:27:3b:fa:e9:5f:97:6f:1e:b1:fd:
        04:0d
-----BEGIN CERTIFICATE-----
MIIDSDCCArGgAwIBAgIBBDANBgkqhkiG9w0BAQQFADBzMQswCQYDVQQGEwJVUzEL
MAkGA1UECBMCTkMxEzARBgNVBAcTCkNBTElGT1JOSUExDTALBgNVBAoTBE9TQ00x
EDAOBgNVBAMUB3ZwY19WUE4xITAfBgkqhkiG9w0BCQEWEnN1cHBvcnRAb3MtY20u
aW5mbzAeFw0xMjA2MjYxMTE1MTBaFw0yMjA2MjQxMTE1MTBaMFkxCzAJBgNVBAYT
AlVTMQswCQYDVQQIEwJOQzENMAsGA1UEChMET1NDTTELMAkGA1UEAxMCZmUxITAf
BgkqhkiG9w0BCQEWEnN1cHBvcnRAb3MtY20uaW5mbzCBnzANBgkqhkiG9w0BAQEF
AAOBjQAwgYkCgYEA5VLGKzPeaQbesukNRLnAXjh/uSrF+6wjujLH3Y9zUCClEMD5
2eWB8UZZKhuzXoMGAoNpRYkG5veAKvX9h63cqXTTVOqwStw074UUZQdd05TCk4eX
IM3LzkM6Nr8D4NyNtGlh8UuzKRyNCmgmapPeRg4WbgsCGv+i5DrbonZzAD8CAwEA
AaOCAQQwggEAMAkGA1UdEwQCMAAwLAYJYIZIAYb4QgENBB8WHU9wZW5TU0wgR2Vu
ZXJhdGVkIENlcnRpZmljYXRlMB0GA1UdDgQWBBRygIKMfJSDZsgC9N5pW4KkEUiV
sTCBpQYDVR0jBIGdMIGagBQw0MVEisuI0+wYVDOpxHk76hphRKF3pHUwczELMAkG
A1UEBhMCVVMxCzAJBgNVBAgTAk5DMRMwEQYDVQQHEwpDQUxJRk9STklBMQ0wCwYD
VQQKEwRPU0NNMRAwDgYDVQQDFAd2cGNfVlBOMSEwHwYJKoZIhvcNAQkBFhJzdXBw
b3J0QG9zLWNtLmluZm+CCQCAi2+7fxSbhzANBgkqhkiG9w0BAQQFAAOBgQA9EUwL
9zhsXIj7+ztAb0fjN/+c5XRDjUFDNn7QtJvlqgxZfoj8f/DB01fcuGrw8iEmucpC
3Tri4lMMwChLC/LdsD2S7+si2sUembmiA+odOi/8psxj0XKlITcsIXBGAX1P6sGk
qcjWYHe95tEFdXqv4NXhUyc7+ulfl28esf0EDQ==
-----END CERTIFICATE-----
