Certificate:
    Data:
        Version: 3 (0x2)
        Serial Number: 5 (0x5)
        Signature Algorithm: md5WithRSAEncryption
        Issuer: C=US, ST=NC, L=CALIFORNIA, O=OSCM, CN=vpc_VPN/emailAddress=support@os-cm.info
        Validity
            Not Before: Jun 26 11:26:38 2012 GMT
            Not After : Jun 24 11:26:38 2022 GMT
        Subject: C=US, ST=NC, O=OSCM, CN=fe/emailAddress=support@os-cm.info
        Subject Public Key Info:
            Public Key Algorithm: rsaEncryption
                Public-Key: (1024 bit)
                Modulus:
                    00:bb:a0:e0:9a:a1:a6:26:41:ee:b3:c5:1d:ee:9d:
                    09:42:8d:af:96:34:3a:e1:fc:e1:40:32:bf:fb:20:
                    aa:c0:f3:cf:bf:e5:72:f7:46:f3:19:b5:f7:74:ab:
                    c1:4b:3a:6a:4f:bf:f1:2f:c8:ac:0a:6e:c7:04:27:
                    ed:1c:3f:79:12:a2:68:99:77:19:89:cf:bc:6b:bc:
                    3b:0e:04:12:38:06:45:5b:54:a1:08:2e:c9:75:49:
                    42:b4:22:a2:05:b4:90:08:8c:01:8b:e3:28:75:7f:
                    1e:70:d8:74:31:c8:a9:b4:ea:6c:b5:6a:2e:a0:67:
                    81:b6:32:74:e2:d2:89:9d:25
                Exponent: 65537 (0x10001)
        X509v3 extensions:
            X509v3 Basic Constraints: 
                CA:FALSE
            Netscape Comment: 
                OpenSSL Generated Certificate
            X509v3 Subject Key Identifier: 
                1A:E1:46:83:14:A4:A9:06:95:DD:0A:87:28:08:8C:0C:BD:F3:9E:1A
            X509v3 Authority Key Identifier: 
                keyid:30:D0:C5:44:8A:CB:88:D3:EC:18:54:33:A9:C4:79:3B:EA:1A:61:44
                DirName:/C=US/ST=NC/L=CALIFORNIA/O=OSCM/CN=vpc_VPN/emailAddress=support@os-cm.info
                serial:80:8B:6F:BB:7F:14:9B:87

    Signature Algorithm: md5WithRSAEncryption
        05:39:33:20:67:f2:39:1a:b4:15:0e:f6:4c:81:12:de:a7:b8:
        ba:9f:ad:81:53:85:11:a8:b8:d6:98:18:10:71:19:0c:2d:4a:
        80:3f:65:4f:bf:02:e5:b7:25:4c:15:2e:1b:9c:22:0e:75:cc:
        fa:1b:d2:fc:42:da:39:44:30:96:31:79:7e:74:18:f6:d7:a6:
        9d:c2:a7:6a:12:0a:bb:be:16:4e:f6:31:1f:68:f8:55:42:9b:
        c5:02:c8:87:b0:1c:ff:ee:aa:c1:39:1a:65:b7:48:0a:c4:ed:
        8c:f5:31:39:a8:a6:10:92:06:5e:ed:63:f7:e3:c6:21:d4:fb:
        d7:9d
-----BEGIN CERTIFICATE-----
MIIDSDCCArGgAwIBAgIBBTANBgkqhkiG9w0BAQQFADBzMQswCQYDVQQGEwJVUzEL
MAkGA1UECBMCTkMxEzARBgNVBAcTCkNBTElGT1JOSUExDTALBgNVBAoTBE9TQ00x
EDAOBgNVBAMUB3ZwY19WUE4xITAfBgkqhkiG9w0BCQEWEnN1cHBvcnRAb3MtY20u
aW5mbzAeFw0xMjA2MjYxMTI2MzhaFw0yMjA2MjQxMTI2MzhaMFkxCzAJBgNVBAYT
AlVTMQswCQYDVQQIEwJOQzENMAsGA1UEChMET1NDTTELMAkGA1UEAxMCZmUxITAf
BgkqhkiG9w0BCQEWEnN1cHBvcnRAb3MtY20uaW5mbzCBnzANBgkqhkiG9w0BAQEF
AAOBjQAwgYkCgYEAu6DgmqGmJkHus8Ud7p0JQo2vljQ64fzhQDK/+yCqwPPPv+Vy
90bzGbX3dKvBSzpqT7/xL8isCm7HBCftHD95EqJomXcZic+8a7w7DgQSOAZFW1Sh
CC7JdUlCtCKiBbSQCIwBi+ModX8ecNh0MciptOpstWouoGeBtjJ04tKJnSUCAwEA
AaOCAQQwggEAMAkGA1UdEwQCMAAwLAYJYIZIAYb4QgENBB8WHU9wZW5TU0wgR2Vu
ZXJhdGVkIENlcnRpZmljYXRlMB0GA1UdDgQWBBQa4UaDFKSpBpXdCocoCIwMvfOe
GjCBpQYDVR0jBIGdMIGagBQw0MVEisuI0+wYVDOpxHk76hphRKF3pHUwczELMAkG
A1UEBhMCVVMxCzAJBgNVBAgTAk5DMRMwEQYDVQQHEwpDQUxJRk9STklBMQ0wCwYD
VQQKEwRPU0NNMRAwDgYDVQQDFAd2cGNfVlBOMSEwHwYJKoZIhvcNAQkBFhJzdXBw
b3J0QG9zLWNtLmluZm+CCQCAi2+7fxSbhzANBgkqhkiG9w0BAQQFAAOBgQAFOTMg
Z/I5GrQVDvZMgRLep7i6n62BU4URqLjWmBgQcRkMLUqAP2VPvwLltyVMFS4bnCIO
dcz6G9L8Qto5RDCWMXl+dBj216adwqdqEgq7vhZO9jEfaPhVQpvFAsiHsBz/7qrB
ORplt0gKxO2M9TE5qKYQkgZe7WP348Yh1PvXnQ==
-----END CERTIFICATE-----
