Certificate:
    Data:
        Version: 3 (0x2)
        Serial Number: 6 (0x6)
        Signature Algorithm: md5WithRSAEncryption
        Issuer: C=US, ST=NC, L=CALIFORNIA, O=OSCM, CN=vpc_VPN/emailAddress=support@os-cm.info
        Validity
            Not Before: Jun 26 11:27:45 2012 GMT
            Not After : Jun 24 11:27:45 2022 GMT
        Subject: C=US, ST=NC, O=OSCM, CN=fe/emailAddress=support@os-cm.info
        Subject Public Key Info:
            Public Key Algorithm: rsaEncryption
                Public-Key: (1024 bit)
                Modulus:
                    00:c1:ad:1d:29:5a:36:2d:be:01:f7:06:3d:74:9a:
                    07:24:89:d1:40:6f:ac:60:9d:58:37:22:a6:4d:83:
                    e0:66:1e:8a:c0:3a:a3:ab:7d:b6:eb:36:97:8c:08:
                    df:86:f0:bf:c9:b4:99:05:74:b4:f6:a4:bf:cf:fc:
                    65:30:d7:72:77:03:f6:59:8e:7d:79:cd:11:f6:9a:
                    aa:9a:53:a6:6d:2c:28:ab:89:fb:f2:08:f7:e8:7a:
                    d9:06:0b:0f:30:38:82:29:ec:1e:e8:3f:2c:47:3e:
                    bc:bc:54:23:7c:fa:05:3f:82:27:87:4b:e9:84:64:
                    b1:24:16:ea:9d:00:a7:80:01
                Exponent: 65537 (0x10001)
        X509v3 extensions:
            X509v3 Basic Constraints: 
                CA:FALSE
            Netscape Comment: 
                OpenSSL Generated Certificate
            X509v3 Subject Key Identifier: 
                37:F6:9A:B2:59:E3:4F:60:A7:8B:2A:54:8D:A8:67:70:AB:11:C3:F8
            X509v3 Authority Key Identifier: 
                keyid:30:D0:C5:44:8A:CB:88:D3:EC:18:54:33:A9:C4:79:3B:EA:1A:61:44
                DirName:/C=US/ST=NC/L=CALIFORNIA/O=OSCM/CN=vpc_VPN/emailAddress=support@os-cm.info
                serial:80:8B:6F:BB:7F:14:9B:87

    Signature Algorithm: md5WithRSAEncryption
        63:57:c8:6f:52:27:fa:cc:ad:20:50:af:7f:1a:0a:e4:ae:25:
        f5:95:e6:65:09:dc:a1:7e:62:f8:75:7b:80:cd:3d:1b:28:4f:
        fb:5c:8b:a3:66:43:ce:46:fd:87:8c:95:a3:20:37:12:fe:4b:
        cd:c1:26:43:bf:d0:57:06:d3:9d:20:61:3a:f0:fa:54:82:dd:
        05:7b:7a:b4:f9:3a:50:fd:ff:50:00:38:a8:75:76:eb:e7:7f:
        17:82:6a:09:f4:96:06:5a:21:57:ea:7b:d3:49:07:44:0d:46:
        63:36:d6:e3:26:39:2f:f6:81:25:29:98:85:4f:62:16:6d:bc:
        d7:f5
-----BEGIN CERTIFICATE-----
MIIDSDCCArGgAwIBAgIBBjANBgkqhkiG9w0BAQQFADBzMQswCQYDVQQGEwJVUzEL
MAkGA1UECBMCTkMxEzARBgNVBAcTCkNBTElGT1JOSUExDTALBgNVBAoTBE9TQ00x
EDAOBgNVBAMUB3ZwY19WUE4xITAfBgkqhkiG9w0BCQEWEnN1cHBvcnRAb3MtY20u
aW5mbzAeFw0xMjA2MjYxMTI3NDVaFw0yMjA2MjQxMTI3NDVaMFkxCzAJBgNVBAYT
AlVTMQswCQYDVQQIEwJOQzENMAsGA1UEChMET1NDTTELMAkGA1UEAxMCZmUxITAf
BgkqhkiG9w0BCQEWEnN1cHBvcnRAb3MtY20uaW5mbzCBnzANBgkqhkiG9w0BAQEF
AAOBjQAwgYkCgYEAwa0dKVo2Lb4B9wY9dJoHJInRQG+sYJ1YNyKmTYPgZh6KwDqj
q3226zaXjAjfhvC/ybSZBXS09qS/z/xlMNdydwP2WY59ec0R9pqqmlOmbSwoq4n7
8gj36HrZBgsPMDiCKewe6D8sRz68vFQjfPoFP4Inh0vphGSxJBbqnQCngAECAwEA
AaOCAQQwggEAMAkGA1UdEwQCMAAwLAYJYIZIAYb4QgENBB8WHU9wZW5TU0wgR2Vu
ZXJhdGVkIENlcnRpZmljYXRlMB0GA1UdDgQWBBQ39pqyWeNPYKeLKlSNqGdwqxHD
+DCBpQYDVR0jBIGdMIGagBQw0MVEisuI0+wYVDOpxHk76hphRKF3pHUwczELMAkG
A1UEBhMCVVMxCzAJBgNVBAgTAk5DMRMwEQYDVQQHEwpDQUxJRk9STklBMQ0wCwYD
VQQKEwRPU0NNMRAwDgYDVQQDFAd2cGNfVlBOMSEwHwYJKoZIhvcNAQkBFhJzdXBw
b3J0QG9zLWNtLmluZm+CCQCAi2+7fxSbhzANBgkqhkiG9w0BAQQFAAOBgQBjV8hv
Uif6zK0gUK9/GgrkriX1leZlCdyhfmL4dXuAzT0bKE/7XIujZkPORv2HjJWjIDcS
/kvNwSZDv9BXBtOdIGE68PpUgt0Fe3q0+TpQ/f9QADiodXbr538XgmoJ9JYGWiFX
6nvTSQdEDUZjNtbjJjkv9oElKZiFT2IWbbzX9Q==
-----END CERTIFICATE-----
