Certificate:
    Data:
        Version: 3 (0x2)
        Serial Number: 7 (0x7)
        Signature Algorithm: md5WithRSAEncryption
        Issuer: C=US, ST=NC, L=CALIFORNIA, O=OSCM, CN=vpc_VPN/emailAddress=support@os-cm.info
        Validity
            Not Before: Jun 26 11:28:04 2012 GMT
            Not After : Jun 24 11:28:04 2022 GMT
        Subject: C=US, ST=NC, O=OSCM, CN=fe/emailAddress=support@os-cm.info
        Subject Public Key Info:
            Public Key Algorithm: rsaEncryption
                Public-Key: (1024 bit)
                Modulus:
                    00:d4:66:3a:88:f9:a7:2b:92:8a:84:56:f9:69:cd:
                    c1:d0:de:b6:00:0f:b2:f5:43:8f:e0:d8:38:58:3c:
                    5e:95:37:05:d3:81:f0:4a:bf:26:29:ab:d0:18:f8:
                    d5:5b:96:6b:fb:b6:e8:77:71:a0:a6:1e:33:74:3a:
                    27:49:e0:7e:ad:49:8c:9e:b4:a5:a0:08:ec:d5:d4:
                    6a:25:91:b3:c9:d4:86:60:f7:88:61:37:f0:8a:4c:
                    75:80:58:78:3d:c3:43:92:74:53:6c:33:51:de:0a:
                    8b:b7:66:b4:c3:1f:93:ad:08:19:5d:16:13:21:b8:
                    f5:2f:bd:c5:e0:e1:a6:42:ff
                Exponent: 65537 (0x10001)
        X509v3 extensions:
            X509v3 Basic Constraints: 
                CA:FALSE
            Netscape Comment: 
                OpenSSL Generated Certificate
            X509v3 Subject Key Identifier: 
                98:A4:DB:89:80:73:5E:DD:E6:00:D8:77:18:8D:EF:E3:43:48:80:80
            X509v3 Authority Key Identifier: 
                keyid:30:D0:C5:44:8A:CB:88:D3:EC:18:54:33:A9:C4:79:3B:EA:1A:61:44
                DirName:/C=US/ST=NC/L=CALIFORNIA/O=OSCM/CN=vpc_VPN/emailAddress=support@os-cm.info
                serial:80:8B:6F:BB:7F:14:9B:87

    Signature Algorithm: md5WithRSAEncryption
        7d:2b:7b:6d:b6:ff:4c:b0:40:da:3a:aa:27:8e:d5:30:90:3b:
        92:c3:3e:55:02:e0:98:ae:b5:f1:4c:2e:bc:4c:b2:87:ec:b2:
        f7:8d:00:ca:e3:2e:69:41:17:a1:6c:83:ea:69:b2:4f:b1:0f:
        84:dc:aa:00:a8:d6:36:7e:6c:3f:3a:c6:79:5e:f2:64:3c:df:
        f6:1a:70:e2:92:57:a4:80:7b:be:14:08:56:7b:a4:bd:c1:2a:
        01:ab:89:bd:09:36:dc:ea:db:63:c7:61:cb:70:f9:c8:f0:71:
        74:8e:a1:46:1c:89:1a:47:83:ec:7b:0a:0d:78:ed:5c:27:f5:
        3a:3a
-----BEGIN CERTIFICATE-----
MIIDSDCCArGgAwIBAgIBBzANBgkqhkiG9w0BAQQFADBzMQswCQYDVQQGEwJVUzEL
MAkGA1UECBMCTkMxEzARBgNVBAcTCkNBTElGT1JOSUExDTALBgNVBAoTBE9TQ00x
EDAOBgNVBAMUB3ZwY19WUE4xITAfBgkqhkiG9w0BCQEWEnN1cHBvcnRAb3MtY20u
aW5mbzAeFw0xMjA2MjYxMTI4MDRaFw0yMjA2MjQxMTI4MDRaMFkxCzAJBgNVBAYT
AlVTMQswCQYDVQQIEwJOQzENMAsGA1UEChMET1NDTTELMAkGA1UEAxMCZmUxITAf
BgkqhkiG9w0BCQEWEnN1cHBvcnRAb3MtY20uaW5mbzCBnzANBgkqhkiG9w0BAQEF
AAOBjQAwgYkCgYEA1GY6iPmnK5KKhFb5ac3B0N62AA+y9UOP4Ng4WDxelTcF04Hw
Sr8mKavQGPjVW5Zr+7bod3Ggph4zdDonSeB+rUmMnrSloAjs1dRqJZGzydSGYPeI
YTfwikx1gFh4PcNDknRTbDNR3gqLt2a0wx+TrQgZXRYTIbj1L73F4OGmQv8CAwEA
AaOCAQQwggEAMAkGA1UdEwQCMAAwLAYJYIZIAYb4QgENBB8WHU9wZW5TU0wgR2Vu
ZXJhdGVkIENlcnRpZmljYXRlMB0GA1UdDgQWBBSYpNuJgHNe3eYA2HcYje/jQ0iA
gDCBpQYDVR0jBIGdMIGagBQw0MVEisuI0+wYVDOpxHk76hphRKF3pHUwczELMAkG
A1UEBhMCVVMxCzAJBgNVBAgTAk5DMRMwEQYDVQQHEwpDQUxJRk9STklBMQ0wCwYD
VQQKEwRPU0NNMRAwDgYDVQQDFAd2cGNfVlBOMSEwHwYJKoZIhvcNAQkBFhJzdXBw
b3J0QG9zLWNtLmluZm+CCQCAi2+7fxSbhzANBgkqhkiG9w0BAQQFAAOBgQB9K3tt
tv9MsEDaOqonjtUwkDuSwz5VAuCYrrXxTC68TLKH7LL3jQDK4y5pQRehbIPqabJP
sQ+E3KoAqNY2fmw/OsZ5XvJkPN/2GnDiklekgHu+FAhWe6S9wSoBq4m9CTbc6ttj
x2HLcPnI8HF0jqFGHIkaR4PsewoNeO1cJ/U6Og==
-----END CERTIFICATE-----
