Certificate:
    Data:
        Version: 3 (0x2)
        Serial Number: 9 (0x9)
        Signature Algorithm: md5WithRSAEncryption
        Issuer: C=US, ST=NC, L=CALIFORNIA, O=OSCM, CN=vpc_VPN/emailAddress=support@os-cm.info
        Validity
            Not Before: Jun 26 11:28:39 2012 GMT
            Not After : Jun 24 11:28:39 2022 GMT
        Subject: C=US, ST=NC, O=OSCM, CN=fe/emailAddress=support@os-cm.info
        Subject Public Key Info:
            Public Key Algorithm: rsaEncryption
                Public-Key: (1024 bit)
                Modulus:
                    00:c7:83:01:dc:c1:c0:8e:bf:57:7d:08:e8:ab:fb:
                    75:fa:6d:06:a0:39:17:18:e1:bb:d8:eb:5d:4c:24:
                    00:5e:9d:6d:ba:e5:17:a1:58:8d:95:37:d7:dd:a6:
                    e4:03:de:79:22:d3:c3:25:e2:23:93:8f:39:14:da:
                    fb:48:0c:dc:9a:51:5c:28:b9:ec:de:18:a5:6d:77:
                    65:29:f8:79:e8:c7:5f:9e:df:3a:5d:01:30:07:78:
                    ec:1a:44:9d:f4:c0:ae:57:eb:ec:ab:e8:ea:eb:05:
                    ef:07:a4:d4:46:70:49:cb:bc:21:26:17:ce:3b:51:
                    e4:0f:c8:c8:18:96:1b:9b:71
                Exponent: 65537 (0x10001)
        X509v3 extensions:
            X509v3 Basic Constraints: 
                CA:FALSE
            Netscape Comment: 
                OpenSSL Generated Certificate
            X509v3 Subject Key Identifier: 
                D9:5F:DF:6D:D6:2B:20:30:8E:F7:A4:FF:FD:BF:3C:00:6C:D1:5A:BF
            X509v3 Authority Key Identifier: 
                keyid:30:D0:C5:44:8A:CB:88:D3:EC:18:54:33:A9:C4:79:3B:EA:1A:61:44
                DirName:/C=US/ST=NC/L=CALIFORNIA/O=OSCM/CN=vpc_VPN/emailAddress=support@os-cm.info
                serial:80:8B:6F:BB:7F:14:9B:87

    Signature Algorithm: md5WithRSAEncryption
        10:67:1f:ee:21:06:d6:bd:1a:8a:97:99:59:23:74:4d:e4:7a:
        8d:f6:e2:4a:bf:92:7b:21:15:6a:a2:01:25:a7:cd:25:ae:75:
        34:06:19:f9:df:a0:2c:33:51:41:7d:26:54:95:0f:d9:f8:44:
        b8:82:8b:4b:3e:4c:b8:ce:8f:80:25:64:79:e5:db:ca:66:b5:
        c6:89:e1:68:2a:90:ed:42:5d:84:76:19:10:88:d6:01:16:bb:
        a6:76:73:ce:db:a3:14:28:82:9c:38:2f:2c:05:09:3a:f0:fc:
        3b:07:58:a3:55:da:fb:80:cb:d1:aa:3f:01:36:f4:ab:4c:03:
        76:83
-----BEGIN CERTIFICATE-----
MIIDSDCCArGgAwIBAgIBCTANBgkqhkiG9w0BAQQFADBzMQswCQYDVQQGEwJVUzEL
MAkGA1UECBMCTkMxEzARBgNVBAcTCkNBTElGT1JOSUExDTALBgNVBAoTBE9TQ00x
EDAOBgNVBAMUB3ZwY19WUE4xITAfBgkqhkiG9w0BCQEWEnN1cHBvcnRAb3MtY20u
aW5mbzAeFw0xMjA2MjYxMTI4MzlaFw0yMjA2MjQxMTI4MzlaMFkxCzAJBgNVBAYT
AlVTMQswCQYDVQQIEwJOQzENMAsGA1UEChMET1NDTTELMAkGA1UEAxMCZmUxITAf
BgkqhkiG9w0BCQEWEnN1cHBvcnRAb3MtY20uaW5mbzCBnzANBgkqhkiG9w0BAQEF
AAOBjQAwgYkCgYEAx4MB3MHAjr9XfQjoq/t1+m0GoDkXGOG72OtdTCQAXp1tuuUX
oViNlTfX3abkA955ItPDJeIjk485FNr7SAzcmlFcKLns3hilbXdlKfh56Mdfnt86
XQEwB3jsGkSd9MCuV+vsq+jq6wXvB6TURnBJy7whJhfOO1HkD8jIGJYbm3ECAwEA
AaOCAQQwggEAMAkGA1UdEwQCMAAwLAYJYIZIAYb4QgENBB8WHU9wZW5TU0wgR2Vu
ZXJhdGVkIENlcnRpZmljYXRlMB0GA1UdDgQWBBTZX99t1isgMI73pP/9vzwAbNFa
vzCBpQYDVR0jBIGdMIGagBQw0MVEisuI0+wYVDOpxHk76hphRKF3pHUwczELMAkG
A1UEBhMCVVMxCzAJBgNVBAgTAk5DMRMwEQYDVQQHEwpDQUxJRk9STklBMQ0wCwYD
VQQKEwRPU0NNMRAwDgYDVQQDFAd2cGNfVlBOMSEwHwYJKoZIhvcNAQkBFhJzdXBw
b3J0QG9zLWNtLmluZm+CCQCAi2+7fxSbhzANBgkqhkiG9w0BAQQFAAOBgQAQZx/u
IQbWvRqKl5lZI3RN5HqN9uJKv5J7IRVqogElp80lrnU0Bhn536AsM1FBfSZUlQ/Z
+ES4gotLPky4zo+AJWR55dvKZrXGieFoKpDtQl2EdhkQiNYBFrumdnPO26MUKIKc
OC8sBQk68Pw7B1ijVdr7gMvRqj8BNvSrTAN2gw==
-----END CERTIFICATE-----
