Certificate:
    Data:
        Version: 3 (0x2)
        Serial Number: 10 (0xa)
        Signature Algorithm: md5WithRSAEncryption
        Issuer: C=US, ST=NC, L=CALIFORNIA, O=OSCM, CN=vpc_VPN/emailAddress=support@os-cm.info
        Validity
            Not Before: Jun 26 11:28:58 2012 GMT
            Not After : Jun 24 11:28:58 2022 GMT
        Subject: C=US, ST=NC, O=OSCM, CN=fe/emailAddress=support@os-cm.info
        Subject Public Key Info:
            Public Key Algorithm: rsaEncryption
                Public-Key: (1024 bit)
                Modulus:
                    00:c2:4d:e4:18:3a:04:83:80:13:fe:81:d6:97:6b:
                    71:d6:30:b1:6d:86:ec:8d:93:f2:e3:24:19:ee:71:
                    a5:d6:00:5b:73:70:d4:1e:be:24:45:9a:99:22:44:
                    4b:e9:3e:2e:5d:92:08:5b:09:c8:55:7b:40:df:e4:
                    08:56:95:26:2d:ae:eb:be:ec:59:8e:ad:dc:55:9d:
                    c7:f4:ea:a9:a2:dc:8a:77:f3:30:3e:2c:6c:90:df:
                    41:b1:0b:20:e1:11:6b:35:0d:56:3b:d3:b3:6a:9b:
                    27:9b:0e:ea:bd:51:7d:5c:d4:bf:48:ee:a2:d9:46:
                    08:1d:82:23:56:1f:37:c1:8f
                Exponent: 65537 (0x10001)
        X509v3 extensions:
            X509v3 Basic Constraints: 
                CA:FALSE
            Netscape Comment: 
                OpenSSL Generated Certificate
            X509v3 Subject Key Identifier: 
                D5:26:A7:42:6B:85:F2:BE:64:75:F4:FD:85:E0:50:EA:57:53:BB:92
            X509v3 Authority Key Identifier: 
                keyid:30:D0:C5:44:8A:CB:88:D3:EC:18:54:33:A9:C4:79:3B:EA:1A:61:44
                DirName:/C=US/ST=NC/L=CALIFORNIA/O=OSCM/CN=vpc_VPN/emailAddress=support@os-cm.info
                serial:80:8B:6F:BB:7F:14:9B:87

    Signature Algorithm: md5WithRSAEncryption
        58:d0:58:fc:7c:07:9a:ef:19:54:5a:ae:a7:62:ee:e3:17:a7:
        c1:b1:7d:44:82:11:05:f7:f2:f6:a3:9d:c9:ab:f2:ac:7c:56:
        1c:de:42:33:9b:b5:b6:be:46:4a:4c:31:65:bc:63:6c:64:26:
        e2:e7:a1:37:a6:da:6d:01:41:9b:77:f2:68:35:b0:be:a5:85:
        98:3d:af:e9:6e:c1:42:87:f1:d2:1d:a2:01:65:9c:5e:c1:5c:
        03:67:1d:d4:6d:b7:a4:36:73:95:2b:8e:00:09:73:e1:1f:27:
        ee:9e:a6:3e:fd:7e:c2:19:5f:da:3a:ee:83:af:2d:87:36:4e:
        68:43
-----BEGIN CERTIFICATE-----
MIIDSDCCArGgAwIBAgIBCjANBgkqhkiG9w0BAQQFADBzMQswCQYDVQQGEwJVUzEL
MAkGA1UECBMCTkMxEzARBgNVBAcTCkNBTElGT1JOSUExDTALBgNVBAoTBE9TQ00x
EDAOBgNVBAMUB3ZwY19WUE4xITAfBgkqhkiG9w0BCQEWEnN1cHBvcnRAb3MtY20u
aW5mbzAeFw0xMjA2MjYxMTI4NThaFw0yMjA2MjQxMTI4NThaMFkxCzAJBgNVBAYT
AlVTMQswCQYDVQQIEwJOQzENMAsGA1UEChMET1NDTTELMAkGA1UEAxMCZmUxITAf
BgkqhkiG9w0BCQEWEnN1cHBvcnRAb3MtY20uaW5mbzCBnzANBgkqhkiG9w0BAQEF
AAOBjQAwgYkCgYEAwk3kGDoEg4AT/oHWl2tx1jCxbYbsjZPy4yQZ7nGl1gBbc3DU
Hr4kRZqZIkRL6T4uXZIIWwnIVXtA3+QIVpUmLa7rvuxZjq3cVZ3H9OqpotyKd/Mw
PixskN9BsQsg4RFrNQ1WO9Ozapsnmw7qvVF9XNS/SO6i2UYIHYIjVh83wY8CAwEA
AaOCAQQwggEAMAkGA1UdEwQCMAAwLAYJYIZIAYb4QgENBB8WHU9wZW5TU0wgR2Vu
ZXJhdGVkIENlcnRpZmljYXRlMB0GA1UdDgQWBBTVJqdCa4XyvmR19P2F4FDqV1O7
kjCBpQYDVR0jBIGdMIGagBQw0MVEisuI0+wYVDOpxHk76hphRKF3pHUwczELMAkG
A1UEBhMCVVMxCzAJBgNVBAgTAk5DMRMwEQYDVQQHEwpDQUxJRk9STklBMQ0wCwYD
VQQKEwRPU0NNMRAwDgYDVQQDFAd2cGNfVlBOMSEwHwYJKoZIhvcNAQkBFhJzdXBw
b3J0QG9zLWNtLmluZm+CCQCAi2+7fxSbhzANBgkqhkiG9w0BAQQFAAOBgQBY0Fj8
fAea7xlUWq6nYu7jF6fBsX1EghEF9/L2o53Jq/KsfFYc3kIzm7W2vkZKTDFlvGNs
ZCbi56E3ptptAUGbd/JoNbC+pYWYPa/pbsFCh/HSHaIBZZxewVwDZx3UbbekNnOV
K44ACXPhHyfunqY+/X7CGV/aOu6Dry2HNk5oQw==
-----END CERTIFICATE-----
