Certificate:
    Data:
        Version: 3 (0x2)
        Serial Number: 15 (0xf)
        Signature Algorithm: md5WithRSAEncryption
        Issuer: C=US, ST=NC, L=CALIFORNIA, O=OSCM, CN=vpc_VPN/emailAddress=support@os-cm.info
        Validity
            Not Before: Jul 11 08:46:37 2012 GMT
            Not After : Jul  9 08:46:37 2022 GMT
        Subject: C=US, ST=NC, O=OSCM, CN=zvi1/emailAddress=support@os-cm.info
        Subject Public Key Info:
            Public Key Algorithm: rsaEncryption
                Public-Key: (1024 bit)
                Modulus:
                    00:c4:e7:a5:f2:d3:e1:be:fc:0f:aa:ac:56:e7:f1:
                    93:e1:b7:ae:aa:e1:e6:ce:01:36:3c:b8:97:f5:ab:
                    5a:a5:5f:06:8d:59:52:4c:59:60:50:31:5d:21:9b:
                    e9:2f:89:55:d1:bc:a0:91:b6:5a:c2:9b:00:a9:34:
                    1e:20:2a:40:28:02:52:8a:2b:10:1e:5f:17:a3:e2:
                    1a:88:c3:be:d8:29:33:44:45:76:70:87:e3:d2:3b:
                    94:82:47:44:18:f3:1b:60:5b:dd:8b:d5:0f:ce:f2:
                    7a:b9:f0:25:f2:96:f6:a5:dc:bc:c7:f9:20:89:6e:
                    6d:24:7c:6c:6f:71:59:10:43
                Exponent: 65537 (0x10001)
        X509v3 extensions:
            X509v3 Basic Constraints: 
                CA:FALSE
            Netscape Comment: 
                OpenSSL Generated Certificate
            X509v3 Subject Key Identifier: 
                F6:83:89:74:FF:34:C5:BD:4D:07:C6:66:89:40:CA:18:2E:E0:11:FC
            X509v3 Authority Key Identifier: 
                keyid:30:D0:C5:44:8A:CB:88:D3:EC:18:54:33:A9:C4:79:3B:EA:1A:61:44
                DirName:/C=US/ST=NC/L=CALIFORNIA/O=OSCM/CN=vpc_VPN/emailAddress=support@os-cm.info
                serial:80:8B:6F:BB:7F:14:9B:87

    Signature Algorithm: md5WithRSAEncryption
        8e:74:9a:e9:36:66:5c:b7:c7:00:f6:d5:52:b4:83:69:20:5e:
        8f:36:df:81:16:6f:28:6b:8a:8f:6e:40:9c:b8:7b:e5:d5:10:
        f7:55:da:57:d3:b0:49:59:5b:2c:8d:75:52:8e:ff:94:f4:c3:
        d6:8e:36:df:2b:f2:0e:2f:9a:2c:75:a3:21:fe:b9:50:f6:93:
        68:84:9c:79:ca:dc:b6:1b:59:9c:e8:bc:19:d2:60:65:cd:57:
        9f:62:73:22:ef:65:5e:88:c6:35:5f:e3:fb:d5:df:e1:df:18:
        43:23:e5:ee:f5:78:f1:f8:44:1c:e5:5c:4c:21:cd:b9:73:ee:
        fd:b3
-----BEGIN CERTIFICATE-----
MIIDSjCCArOgAwIBAgIBDzANBgkqhkiG9w0BAQQFADBzMQswCQYDVQQGEwJVUzEL
MAkGA1UECBMCTkMxEzARBgNVBAcTCkNBTElGT1JOSUExDTALBgNVBAoTBE9TQ00x
EDAOBgNVBAMUB3ZwY19WUE4xITAfBgkqhkiG9w0BCQEWEnN1cHBvcnRAb3MtY20u
aW5mbzAeFw0xMjA3MTEwODQ2MzdaFw0yMjA3MDkwODQ2MzdaMFsxCzAJBgNVBAYT
AlVTMQswCQYDVQQIEwJOQzENMAsGA1UEChMET1NDTTENMAsGA1UEAxMEenZpMTEh
MB8GCSqGSIb3DQEJARYSc3VwcG9ydEBvcy1jbS5pbmZvMIGfMA0GCSqGSIb3DQEB
AQUAA4GNADCBiQKBgQDE56Xy0+G+/A+qrFbn8ZPht66q4ebOATY8uJf1q1qlXwaN
WVJMWWBQMV0hm+kviVXRvKCRtlrCmwCpNB4gKkAoAlKKKxAeXxej4hqIw77YKTNE
RXZwh+PSO5SCR0QY8xtgW92L1Q/O8nq58CXylval3LzH+SCJbm0kfGxvcVkQQwID
AQABo4IBBDCCAQAwCQYDVR0TBAIwADAsBglghkgBhvhCAQ0EHxYdT3BlblNTTCBH
ZW5lcmF0ZWQgQ2VydGlmaWNhdGUwHQYDVR0OBBYEFPaDiXT/NMW9TQfGZolAyhgu
4BH8MIGlBgNVHSMEgZ0wgZqAFDDQxUSKy4jT7BhUM6nEeTvqGmFEoXekdTBzMQsw
CQYDVQQGEwJVUzELMAkGA1UECBMCTkMxEzARBgNVBAcTCkNBTElGT1JOSUExDTAL
BgNVBAoTBE9TQ00xEDAOBgNVBAMUB3ZwY19WUE4xITAfBgkqhkiG9w0BCQEWEnN1
cHBvcnRAb3MtY20uaW5mb4IJAICLb7t/FJuHMA0GCSqGSIb3DQEBBAUAA4GBAI50
muk2Zly3xwD21VK0g2kgXo8234EWbyhrio9uQJy4e+XVEPdV2lfTsElZWyyNdVKO
/5T0w9aONt8r8g4vmix1oyH+uVD2k2iEnHnK3LYbWZzovBnSYGXNV59icyLvZV6I
xjVf4/vV3+HfGEMj5e71ePH4RBzlXEwhzblz7v2z
-----END CERTIFICATE-----
