Certificate:
    Data:
        Version: 3 (0x2)
        Serial Number: 16 (0x10)
        Signature Algorithm: md5WithRSAEncryption
        Issuer: C=US, ST=NC, L=CALIFORNIA, O=OSCM, CN=vpc_VPN/emailAddress=support@os-cm.info
        Validity
            Not Before: Jul 11 13:57:50 2012 GMT
            Not After : Jul  9 13:57:50 2022 GMT
        Subject: C=US, ST=NC, O=OSCM, CN=David/emailAddress=support@os-cm.info
        Subject Public Key Info:
            Public Key Algorithm: rsaEncryption
                Public-Key: (1024 bit)
                Modulus:
                    00:b0:54:88:96:81:6d:f6:37:3c:ad:46:8c:96:e9:
                    a3:2f:14:c5:7a:6d:85:8c:2a:10:59:10:1f:b0:0b:
                    83:27:66:98:9f:50:b7:91:e4:08:58:ad:c3:4d:10:
                    eb:a8:d1:64:a2:dc:d1:f3:6d:10:ed:e6:25:88:fa:
                    30:35:9b:ef:f5:d3:ea:d3:fe:66:bd:06:24:7d:03:
                    a5:87:00:28:3f:7d:d2:66:dd:be:47:91:0d:4e:83:
                    84:82:54:76:f0:1b:00:e0:48:37:01:32:82:7f:ab:
                    dc:27:f6:d1:fc:11:84:20:10:dc:ef:ff:73:13:91:
                    94:90:c4:e9:2d:78:81:d7:ef
                Exponent: 65537 (0x10001)
        X509v3 extensions:
            X509v3 Basic Constraints: 
                CA:FALSE
            Netscape Comment: 
                OpenSSL Generated Certificate
            X509v3 Subject Key Identifier: 
                61:0F:F0:CF:60:8B:44:FA:62:F7:DA:76:70:E6:4E:68:1D:E2:71:92
            X509v3 Authority Key Identifier: 
                keyid:30:D0:C5:44:8A:CB:88:D3:EC:18:54:33:A9:C4:79:3B:EA:1A:61:44
                DirName:/C=US/ST=NC/L=CALIFORNIA/O=OSCM/CN=vpc_VPN/emailAddress=support@os-cm.info
                serial:80:8B:6F:BB:7F:14:9B:87

    Signature Algorithm: md5WithRSAEncryption
        85:2b:75:c1:a0:52:56:f1:25:1c:36:fe:d2:1d:2d:b6:1d:4c:
        89:96:cb:c3:d5:b6:21:82:5b:0d:fc:bc:ea:24:c8:9d:60:ad:
        0d:4c:a6:35:86:42:8a:e2:4c:2b:ac:15:8d:c9:38:5e:91:71:
        52:3c:99:70:af:cf:eb:4a:83:8c:be:ba:77:43:8c:9a:a1:3b:
        00:38:d2:8e:f3:8d:69:e6:52:4a:ec:c2:fd:4a:4d:55:68:4e:
        72:89:af:27:b6:37:a4:03:02:0c:5b:81:5b:b1:95:cc:35:74:
        b3:f0:af:19:cd:d8:02:44:74:69:14:2e:3b:b4:33:81:38:ef:
        60:f0
-----BEGIN CERTIFICATE-----
MIIDSzCCArSgAwIBAgIBEDANBgkqhkiG9w0BAQQFADBzMQswCQYDVQQGEwJVUzEL
MAkGA1UECBMCTkMxEzARBgNVBAcTCkNBTElGT1JOSUExDTALBgNVBAoTBE9TQ00x
EDAOBgNVBAMUB3ZwY19WUE4xITAfBgkqhkiG9w0BCQEWEnN1cHBvcnRAb3MtY20u
aW5mbzAeFw0xMjA3MTExMzU3NTBaFw0yMjA3MDkxMzU3NTBaMFwxCzAJBgNVBAYT
AlVTMQswCQYDVQQIEwJOQzENMAsGA1UEChMET1NDTTEOMAwGA1UEAxMFRGF2aWQx
ITAfBgkqhkiG9w0BCQEWEnN1cHBvcnRAb3MtY20uaW5mbzCBnzANBgkqhkiG9w0B
AQEFAAOBjQAwgYkCgYEAsFSIloFt9jc8rUaMlumjLxTFem2FjCoQWRAfsAuDJ2aY
n1C3keQIWK3DTRDrqNFkotzR820Q7eYliPowNZvv9dPq0/5mvQYkfQOlhwAoP33S
Zt2+R5ENToOEglR28BsA4Eg3ATKCf6vcJ/bR/BGEIBDc7/9zE5GUkMTpLXiB1+8C
AwEAAaOCAQQwggEAMAkGA1UdEwQCMAAwLAYJYIZIAYb4QgENBB8WHU9wZW5TU0wg
R2VuZXJhdGVkIENlcnRpZmljYXRlMB0GA1UdDgQWBBRhD/DPYItE+mL32nZw5k5o
HeJxkjCBpQYDVR0jBIGdMIGagBQw0MVEisuI0+wYVDOpxHk76hphRKF3pHUwczEL
MAkGA1UEBhMCVVMxCzAJBgNVBAgTAk5DMRMwEQYDVQQHEwpDQUxJRk9STklBMQ0w
CwYDVQQKEwRPU0NNMRAwDgYDVQQDFAd2cGNfVlBOMSEwHwYJKoZIhvcNAQkBFhJz
dXBwb3J0QG9zLWNtLmluZm+CCQCAi2+7fxSbhzANBgkqhkiG9w0BAQQFAAOBgQCF
K3XBoFJW8SUcNv7SHS22HUyJlsvD1bYhglsN/LzqJMidYK0NTKY1hkKK4kwrrBWN
yThekXFSPJlwr8/rSoOMvrp3Q4yaoTsAONKO841p5lJK7ML9Sk1VaE5yia8ntjek
AwIMW4FbsZXMNXSz8K8ZzdgCRHRpFC47tDOBOO9g8A==
-----END CERTIFICATE-----
