Certificate:
    Data:
        Version: 3 (0x2)
        Serial Number: 18 (0x12)
        Signature Algorithm: md5WithRSAEncryption
        Issuer: C=US, ST=NC, L=CALIFORNIA, O=OSCM, CN=vpc_VPN/emailAddress=support@os-cm.info
        Validity
            Not Before: Jul 11 17:34:37 2012 GMT
            Not After : Jul  9 17:34:37 2022 GMT
        Subject: C=US, ST=NC, O=OSCM, CN=David2/emailAddress=support@os-cm.info
        Subject Public Key Info:
            Public Key Algorithm: rsaEncryption
                Public-Key: (1024 bit)
                Modulus:
                    00:d8:96:9c:eb:a8:fb:50:be:64:b0:e4:29:a6:a0:
                    9f:71:9e:6b:0b:dd:ee:2a:27:14:91:41:3e:e3:15:
                    a2:56:59:30:ac:94:a8:fb:c3:6f:04:a5:ba:5e:d5:
                    27:c5:9b:ff:2c:a6:14:f3:7a:f0:9c:95:29:ce:7a:
                    9e:37:e3:b3:e3:ab:a8:b9:c7:77:87:cb:f5:79:84:
                    ae:a4:e5:c9:6c:c8:94:57:a5:2f:61:36:b7:db:56:
                    c7:f7:aa:8d:a8:84:d0:f0:7d:11:c2:5d:d2:f5:3e:
                    e8:27:a4:9f:ff:4c:bc:96:7c:32:31:6e:b2:a4:45:
                    5a:c4:c9:41:91:38:1a:9e:37
                Exponent: 65537 (0x10001)
        X509v3 extensions:
            X509v3 Basic Constraints: 
                CA:FALSE
            Netscape Comment: 
                OpenSSL Generated Certificate
            X509v3 Subject Key Identifier: 
                A4:07:9F:76:F5:CD:AE:F0:BF:7F:CE:E4:8D:65:66:F5:30:54:23:C7
            X509v3 Authority Key Identifier: 
                keyid:30:D0:C5:44:8A:CB:88:D3:EC:18:54:33:A9:C4:79:3B:EA:1A:61:44
                DirName:/C=US/ST=NC/L=CALIFORNIA/O=OSCM/CN=vpc_VPN/emailAddress=support@os-cm.info
                serial:80:8B:6F:BB:7F:14:9B:87

    Signature Algorithm: md5WithRSAEncryption
        19:d8:b3:25:46:ed:9a:50:c7:70:2f:2c:f3:ae:2a:43:f2:b8:
        42:18:fa:6d:19:cc:21:b9:a7:cb:12:66:93:45:74:75:ea:b4:
        ee:33:b6:eb:b2:bd:6f:73:65:5d:ef:ce:66:d9:1e:d9:c9:70:
        e9:0c:8f:cc:71:68:63:53:5f:cc:a2:5d:b6:a2:8a:e0:34:86:
        38:49:67:2b:3e:df:81:aa:6c:9f:c4:a4:ef:83:57:ee:a0:30:
        be:9c:f4:c7:dc:97:ef:59:84:71:e7:ff:a4:91:8e:47:a1:65:
        57:bc:c8:6a:81:ad:e2:f6:b4:84:3e:5e:3e:a6:b0:50:bd:a7:
        6b:47
-----BEGIN CERTIFICATE-----
MIIDTDCCArWgAwIBAgIBEjANBgkqhkiG9w0BAQQFADBzMQswCQYDVQQGEwJVUzEL
MAkGA1UECBMCTkMxEzARBgNVBAcTCkNBTElGT1JOSUExDTALBgNVBAoTBE9TQ00x
EDAOBgNVBAMUB3ZwY19WUE4xITAfBgkqhkiG9w0BCQEWEnN1cHBvcnRAb3MtY20u
aW5mbzAeFw0xMjA3MTExNzM0MzdaFw0yMjA3MDkxNzM0MzdaMF0xCzAJBgNVBAYT
AlVTMQswCQYDVQQIEwJOQzENMAsGA1UEChMET1NDTTEPMA0GA1UEAxMGRGF2aWQy
MSEwHwYJKoZIhvcNAQkBFhJzdXBwb3J0QG9zLWNtLmluZm8wgZ8wDQYJKoZIhvcN
AQEBBQADgY0AMIGJAoGBANiWnOuo+1C+ZLDkKaagn3Geawvd7ionFJFBPuMVolZZ
MKyUqPvDbwSlul7VJ8Wb/yymFPN68JyVKc56njfjs+OrqLnHd4fL9XmErqTlyWzI
lFelL2E2t9tWx/eqjaiE0PB9EcJd0vU+6Cekn/9MvJZ8MjFusqRFWsTJQZE4Gp43
AgMBAAGjggEEMIIBADAJBgNVHRMEAjAAMCwGCWCGSAGG+EIBDQQfFh1PcGVuU1NM
IEdlbmVyYXRlZCBDZXJ0aWZpY2F0ZTAdBgNVHQ4EFgQUpAefdvXNrvC/f87kjWVm
9TBUI8cwgaUGA1UdIwSBnTCBmoAUMNDFRIrLiNPsGFQzqcR5O+oaYUShd6R1MHMx
CzAJBgNVBAYTAlVTMQswCQYDVQQIEwJOQzETMBEGA1UEBxMKQ0FMSUZPUk5JQTEN
MAsGA1UEChMET1NDTTEQMA4GA1UEAxQHdnBjX1ZQTjEhMB8GCSqGSIb3DQEJARYS
c3VwcG9ydEBvcy1jbS5pbmZvggkAgItvu38Um4cwDQYJKoZIhvcNAQEEBQADgYEA
GdizJUbtmlDHcC8s864qQ/K4Qhj6bRnMIbmnyxJmk0V0deq07jO267K9b3NlXe/O
Ztke2clw6QyPzHFoY1NfzKJdtqKK4DSGOElnKz7fgapsn8Sk74NX7qAwvpz0x9yX
71mEcef/pJGOR6FlV7zIaoGt4va0hD5ePqawUL2na0c=
-----END CERTIFICATE-----
