Certificate:
    Data:
        Version: 3 (0x2)
        Serial Number: 21 (0x15)
        Signature Algorithm: md5WithRSAEncryption
        Issuer: C=US, ST=NC, L=CALIFORNIA, O=OSCM, CN=vpc_VPN/emailAddress=support@os-cm.info
        Validity
            Not Before: Aug  9 09:26:42 2012 GMT
            Not After : Aug  7 09:26:42 2022 GMT
        Subject: C=US, ST=NC, O=OSCM, CN=Sima/emailAddress=support@os-cm.info
        Subject Public Key Info:
            Public Key Algorithm: rsaEncryption
                Public-Key: (1024 bit)
                Modulus:
                    00:a5:e7:6d:47:52:31:78:c3:93:99:18:6e:7d:6e:
                    6f:be:20:66:5d:44:ba:38:60:0d:e0:2c:a1:e6:ad:
                    a5:2f:87:ed:b5:d6:06:f1:28:23:3b:92:b4:e2:0c:
                    d5:ab:93:ac:87:65:e6:ef:01:15:a4:88:62:e0:b7:
                    0c:96:27:4e:f0:6a:0a:e2:63:21:ba:23:86:a7:3a:
                    16:ff:14:3c:b3:88:e5:70:8e:17:3e:82:c7:44:a8:
                    33:36:4b:44:6b:c1:3f:36:20:f1:93:54:98:c2:19:
                    bd:ac:91:9e:43:79:78:ed:66:d9:6e:a2:de:f9:a0:
                    d7:e4:43:36:17:18:a5:99:bd
                Exponent: 65537 (0x10001)
        X509v3 extensions:
            X509v3 Basic Constraints: 
                CA:FALSE
            Netscape Comment: 
                OpenSSL Generated Certificate
            X509v3 Subject Key Identifier: 
                49:2A:4A:EC:46:77:0F:C7:A3:51:76:FE:DF:5E:71:94:61:9A:68:36
            X509v3 Authority Key Identifier: 
                keyid:30:D0:C5:44:8A:CB:88:D3:EC:18:54:33:A9:C4:79:3B:EA:1A:61:44
                DirName:/C=US/ST=NC/L=CALIFORNIA/O=OSCM/CN=vpc_VPN/emailAddress=support@os-cm.info
                serial:80:8B:6F:BB:7F:14:9B:87

    Signature Algorithm: md5WithRSAEncryption
        b7:de:2d:f4:03:df:e1:7b:07:1a:14:3f:a7:de:6b:1f:b9:32:
        77:cb:af:ee:e1:b2:3f:f8:d1:79:83:42:c9:97:33:7f:97:2e:
        c5:33:d5:b6:cc:85:e5:1b:75:bc:f1:5a:2a:a9:ac:64:2c:18:
        b2:f9:1e:92:a6:95:fa:8a:a4:3b:a9:20:ae:2e:dd:51:99:db:
        3f:61:02:d2:6b:f9:4a:b4:e1:aa:34:f1:8d:ce:bb:53:d2:84:
        ca:d0:23:f0:9c:66:fe:45:72:59:f0:34:0b:bc:d0:4a:e2:6f:
        35:c8:c3:fc:58:9b:1f:65:24:14:2e:c3:b4:28:b1:f8:5e:d2:
        9c:37
-----BEGIN CERTIFICATE-----
MIIDSjCCArOgAwIBAgIBFTANBgkqhkiG9w0BAQQFADBzMQswCQYDVQQGEwJVUzEL
MAkGA1UECBMCTkMxEzARBgNVBAcTCkNBTElGT1JOSUExDTALBgNVBAoTBE9TQ00x
EDAOBgNVBAMUB3ZwY19WUE4xITAfBgkqhkiG9w0BCQEWEnN1cHBvcnRAb3MtY20u
aW5mbzAeFw0xMjA4MDkwOTI2NDJaFw0yMjA4MDcwOTI2NDJaMFsxCzAJBgNVBAYT
AlVTMQswCQYDVQQIEwJOQzENMAsGA1UEChMET1NDTTENMAsGA1UEAxMEU2ltYTEh
MB8GCSqGSIb3DQEJARYSc3VwcG9ydEBvcy1jbS5pbmZvMIGfMA0GCSqGSIb3DQEB
AQUAA4GNADCBiQKBgQCl521HUjF4w5OZGG59bm++IGZdRLo4YA3gLKHmraUvh+21
1gbxKCM7krTiDNWrk6yHZebvARWkiGLgtwyWJ07wagriYyG6I4anOhb/FDyziOVw
jhc+gsdEqDM2S0RrwT82IPGTVJjCGb2skZ5DeXjtZtluot75oNfkQzYXGKWZvQID
AQABo4IBBDCCAQAwCQYDVR0TBAIwADAsBglghkgBhvhCAQ0EHxYdT3BlblNTTCBH
ZW5lcmF0ZWQgQ2VydGlmaWNhdGUwHQYDVR0OBBYEFEkqSuxGdw/Ho1F2/t9ecZRh
mmg2MIGlBgNVHSMEgZ0wgZqAFDDQxUSKy4jT7BhUM6nEeTvqGmFEoXekdTBzMQsw
CQYDVQQGEwJVUzELMAkGA1UECBMCTkMxEzARBgNVBAcTCkNBTElGT1JOSUExDTAL
BgNVBAoTBE9TQ00xEDAOBgNVBAMUB3ZwY19WUE4xITAfBgkqhkiG9w0BCQEWEnN1
cHBvcnRAb3MtY20uaW5mb4IJAICLb7t/FJuHMA0GCSqGSIb3DQEBBAUAA4GBALfe
LfQD3+F7BxoUP6feax+5MnfLr+7hsj/40XmDQsmXM3+XLsUz1bbMheUbdbzxWiqp
rGQsGLL5HpKmlfqKpDupIK4u3VGZ2z9hAtJr+Uq04ao08Y3Ou1PShMrQI/CcZv5F
clnwNAu80EribzXIw/xYmx9lJBQuw7Qosfhe0pw3
-----END CERTIFICATE-----
