Certificate:
    Data:
        Version: 3 (0x2)
        Serial Number: 28 (0x1c)
        Signature Algorithm: md5WithRSAEncryption
        Issuer: C=US, ST=NC, L=CALIFORNIA, O=OSCM, CN=vpc_VPN/emailAddress=support@os-cm.info
        Validity
            Not Before: Dec 16 21:27:29 2013 GMT
            Not After : Dec 14 21:27:29 2023 GMT
        Subject: C=US, ST=NC, O=OSCM, CN=Arie/emailAddress=support@os-cm.info
        Subject Public Key Info:
            Public Key Algorithm: rsaEncryption
                Public-Key: (1024 bit)
                Modulus:
                    00:d4:df:bf:45:3f:35:bb:7f:fb:85:bf:4e:00:8e:
                    f4:4d:a9:1b:98:b0:1d:ab:dc:ef:7e:1e:82:d1:a9:
                    25:54:8f:99:1f:b9:37:ec:09:39:00:76:7c:5d:a6:
                    48:39:f8:66:31:38:54:c3:cc:b7:20:20:4b:2f:93:
                    25:fd:69:26:fb:85:5b:60:ac:0f:4f:63:d9:0f:be:
                    7a:39:39:3a:d2:46:3c:c4:a2:bb:92:3d:80:78:05:
                    61:91:30:e9:59:ed:35:00:0b:4f:d3:df:4d:d2:ae:
                    fd:a8:3b:77:ef:6e:3e:30:76:af:51:30:c3:98:92:
                    a0:47:af:65:38:cd:df:53:e7
                Exponent: 65537 (0x10001)
        X509v3 extensions:
            X509v3 Basic Constraints: 
                CA:FALSE
            Netscape Comment: 
                OpenSSL Generated Certificate
            X509v3 Subject Key Identifier: 
                DD:04:20:15:DB:E4:BA:02:D0:FC:68:0A:B2:94:EB:05:DF:0D:88:E8
            X509v3 Authority Key Identifier: 
                keyid:30:D0:C5:44:8A:CB:88:D3:EC:18:54:33:A9:C4:79:3B:EA:1A:61:44
                DirName:/C=US/ST=NC/L=CALIFORNIA/O=OSCM/CN=vpc_VPN/emailAddress=support@os-cm.info
                serial:80:8B:6F:BB:7F:14:9B:87

    Signature Algorithm: md5WithRSAEncryption
        04:98:71:80:ce:55:fe:82:87:c1:75:45:c5:7e:8a:e0:34:48:
        c7:9a:40:4b:1c:e4:1e:54:4e:5d:2f:b2:f8:de:f2:b1:7f:c0:
        59:99:53:3b:fa:f9:69:fb:76:94:77:e5:cc:b6:b4:c8:d5:91:
        99:6d:70:fc:4a:92:dc:10:26:49:2a:9b:97:e0:0a:dc:2d:3d:
        ff:d3:17:18:f0:b9:da:66:59:0d:04:e3:40:05:70:7d:00:1b:
        8e:d7:93:22:bc:34:bc:b0:a0:7b:b6:7d:d1:0e:52:de:80:3c:
        70:44:27:54:a9:8f:69:e6:d3:27:b7:10:50:e3:98:a4:0a:eb:
        ff:8c
-----BEGIN CERTIFICATE-----
MIIDSjCCArOgAwIBAgIBHDANBgkqhkiG9w0BAQQFADBzMQswCQYDVQQGEwJVUzEL
MAkGA1UECBMCTkMxEzARBgNVBAcTCkNBTElGT1JOSUExDTALBgNVBAoTBE9TQ00x
EDAOBgNVBAMUB3ZwY19WUE4xITAfBgkqhkiG9w0BCQEWEnN1cHBvcnRAb3MtY20u
aW5mbzAeFw0xMzEyMTYyMTI3MjlaFw0yMzEyMTQyMTI3MjlaMFsxCzAJBgNVBAYT
AlVTMQswCQYDVQQIEwJOQzENMAsGA1UEChMET1NDTTENMAsGA1UEAxMEQXJpZTEh
MB8GCSqGSIb3DQEJARYSc3VwcG9ydEBvcy1jbS5pbmZvMIGfMA0GCSqGSIb3DQEB
AQUAA4GNADCBiQKBgQDU379FPzW7f/uFv04AjvRNqRuYsB2r3O9+HoLRqSVUj5kf
uTfsCTkAdnxdpkg5+GYxOFTDzLcgIEsvkyX9aSb7hVtgrA9PY9kPvno5OTrSRjzE
oruSPYB4BWGRMOlZ7TUAC0/T303Srv2oO3fvbj4wdq9RMMOYkqBHr2U4zd9T5wID
AQABo4IBBDCCAQAwCQYDVR0TBAIwADAsBglghkgBhvhCAQ0EHxYdT3BlblNTTCBH
ZW5lcmF0ZWQgQ2VydGlmaWNhdGUwHQYDVR0OBBYEFN0EIBXb5LoC0PxoCrKU6wXf
DYjoMIGlBgNVHSMEgZ0wgZqAFDDQxUSKy4jT7BhUM6nEeTvqGmFEoXekdTBzMQsw
CQYDVQQGEwJVUzELMAkGA1UECBMCTkMxEzARBgNVBAcTCkNBTElGT1JOSUExDTAL
BgNVBAoTBE9TQ00xEDAOBgNVBAMUB3ZwY19WUE4xITAfBgkqhkiG9w0BCQEWEnN1
cHBvcnRAb3MtY20uaW5mb4IJAICLb7t/FJuHMA0GCSqGSIb3DQEBBAUAA4GBAASY
cYDOVf6Ch8F1RcV+iuA0SMeaQEsc5B5UTl0vsvje8rF/wFmZUzv6+Wn7dpR35cy2
tMjVkZltcPxKktwQJkkqm5fgCtwtPf/TFxjwudpmWQ0E40AFcH0AG47XkyK8NLyw
oHu2fdEOUt6APHBEJ1Spj2nm0ye3EFDjmKQK6/+M
-----END CERTIFICATE-----
