Certificate:
    Data:
        Version: 3 (0x2)
        Serial Number: 30 (0x1e)
        Signature Algorithm: md5WithRSAEncryption
        Issuer: C=US, ST=NC, L=CALIFORNIA, O=OSCM, CN=vpc_VPN/emailAddress=support@os-cm.info
        Validity
            Not Before: May  7 17:43:33 2014 GMT
            Not After : May  4 17:43:33 2024 GMT
        Subject: C=US, ST=NC, O=OSCM, CN=netta/emailAddress=support@os-cm.info
        Subject Public Key Info:
            Public Key Algorithm: rsaEncryption
                Public-Key: (1024 bit)
                Modulus:
                    00:99:a3:7d:e4:ee:f0:6b:7f:5c:2a:52:ac:0e:cb:
                    d5:93:23:04:62:f3:a3:86:90:0d:87:e8:a7:43:54:
                    25:bd:a2:01:fd:1c:f2:08:2f:d8:fd:f6:6f:87:45:
                    cc:1a:7d:1c:d1:e0:9e:07:44:1f:7d:b3:e9:5f:94:
                    3a:b7:03:69:e8:0b:82:4f:57:ed:be:1c:a3:76:00:
                    21:6b:08:08:05:bb:71:7d:c1:68:04:0a:00:44:2e:
                    f6:32:4d:e5:49:0b:ba:c9:7f:32:b2:14:87:4b:0a:
                    e9:35:55:b7:2d:de:8c:e6:74:e7:89:9d:cc:e2:f7:
                    88:d5:5e:f1:51:fe:dd:44:4d
                Exponent: 65537 (0x10001)
        X509v3 extensions:
            X509v3 Basic Constraints: 
                CA:FALSE
            Netscape Comment: 
                OpenSSL Generated Certificate
            X509v3 Subject Key Identifier: 
                75:B5:4A:EA:4F:2B:B9:57:14:4C:5A:CF:98:4A:ED:97:D1:95:1B:5B
            X509v3 Authority Key Identifier: 
                keyid:30:D0:C5:44:8A:CB:88:D3:EC:18:54:33:A9:C4:79:3B:EA:1A:61:44
                DirName:/C=US/ST=NC/L=CALIFORNIA/O=OSCM/CN=vpc_VPN/emailAddress=support@os-cm.info
                serial:80:8B:6F:BB:7F:14:9B:87

    Signature Algorithm: md5WithRSAEncryption
        55:4f:40:72:a6:a3:90:b4:7e:98:41:ea:40:2e:ba:c0:55:95:
        7a:c2:62:c1:08:cf:92:c0:13:10:09:85:2b:17:40:f5:00:04:
        4f:cb:e6:35:07:01:a4:08:07:f6:7d:46:79:42:3a:03:12:73:
        99:1c:3d:19:47:86:63:14:ea:32:ad:ad:5d:73:58:af:26:4b:
        b3:0b:ef:0d:18:01:3f:66:c6:17:45:29:f2:fa:20:44:94:72:
        3a:1d:75:4a:52:b8:20:e3:f0:7d:db:16:3d:89:cd:b9:29:d4:
        b6:b4:9c:56:19:fc:9e:5e:7f:a6:b1:91:eb:3e:8d:9c:f2:85:
        3e:b0
-----BEGIN CERTIFICATE-----
MIIDSzCCArSgAwIBAgIBHjANBgkqhkiG9w0BAQQFADBzMQswCQYDVQQGEwJVUzEL
MAkGA1UECBMCTkMxEzARBgNVBAcTCkNBTElGT1JOSUExDTALBgNVBAoTBE9TQ00x
EDAOBgNVBAMUB3ZwY19WUE4xITAfBgkqhkiG9w0BCQEWEnN1cHBvcnRAb3MtY20u
aW5mbzAeFw0xNDA1MDcxNzQzMzNaFw0yNDA1MDQxNzQzMzNaMFwxCzAJBgNVBAYT
AlVTMQswCQYDVQQIEwJOQzENMAsGA1UEChMET1NDTTEOMAwGA1UEAxMFbmV0dGEx
ITAfBgkqhkiG9w0BCQEWEnN1cHBvcnRAb3MtY20uaW5mbzCBnzANBgkqhkiG9w0B
AQEFAAOBjQAwgYkCgYEAmaN95O7wa39cKlKsDsvVkyMEYvOjhpANh+inQ1QlvaIB
/RzyCC/Y/fZvh0XMGn0c0eCeB0QffbPpX5Q6twNp6AuCT1ftvhyjdgAhawgIBbtx
fcFoBAoARC72Mk3lSQu6yX8yshSHSwrpNVW3Ld6M5nTniZ3M4veI1V7xUf7dRE0C
AwEAAaOCAQQwggEAMAkGA1UdEwQCMAAwLAYJYIZIAYb4QgENBB8WHU9wZW5TU0wg
R2VuZXJhdGVkIENlcnRpZmljYXRlMB0GA1UdDgQWBBR1tUrqTyu5VxRMWs+YSu2X
0ZUbWzCBpQYDVR0jBIGdMIGagBQw0MVEisuI0+wYVDOpxHk76hphRKF3pHUwczEL
MAkGA1UEBhMCVVMxCzAJBgNVBAgTAk5DMRMwEQYDVQQHEwpDQUxJRk9STklBMQ0w
CwYDVQQKEwRPU0NNMRAwDgYDVQQDFAd2cGNfVlBOMSEwHwYJKoZIhvcNAQkBFhJz
dXBwb3J0QG9zLWNtLmluZm+CCQCAi2+7fxSbhzANBgkqhkiG9w0BAQQFAAOBgQBV
T0BypqOQtH6YQepALrrAVZV6wmLBCM+SwBMQCYUrF0D1AARPy+Y1BwGkCAf2fUZ5
QjoDEnOZHD0ZR4ZjFOoyra1dc1ivJkuzC+8NGAE/ZsYXRSny+iBElHI6HXVKUrgg
4/B92xY9ic25KdS2tJxWGfyeXn+msZHrPo2c8oU+sA==
-----END CERTIFICATE-----
