Certificate:
    Data:
        Version: 3 (0x2)
        Serial Number: 31 (0x1f)
        Signature Algorithm: md5WithRSAEncryption
        Issuer: C=US, ST=NC, L=CALIFORNIA, O=OSCM, CN=vpc_VPN/emailAddress=support@os-cm.info
        Validity
            Not Before: May  8 16:55:45 2014 GMT
            Not After : May  5 16:55:45 2024 GMT
        Subject: C=US, ST=NC, O=OSCM, CN=gal/emailAddress=support@os-cm.info
        Subject Public Key Info:
            Public Key Algorithm: rsaEncryption
                Public-Key: (1024 bit)
                Modulus:
                    00:aa:c6:9f:bc:d0:0d:e0:69:43:8f:1f:be:cc:42:
                    b3:1c:c3:fd:00:e7:9b:e9:34:ca:00:8b:38:a6:14:
                    80:e4:e3:cd:eb:6a:d0:79:dc:19:f9:1d:30:37:8e:
                    1b:61:ee:ee:c3:2d:73:80:75:8a:91:65:16:13:f1:
                    e3:58:46:5b:91:e1:1b:ce:03:80:89:7c:97:04:09:
                    4a:a1:fe:23:ed:ea:f3:75:e1:6b:80:e8:5c:83:36:
                    08:4c:75:73:82:61:78:90:ae:5c:2b:35:4f:a8:da:
                    79:0d:a2:19:5b:14:5d:bc:f4:ca:50:19:88:cd:d9:
                    01:68:d5:7f:98:cc:40:26:b7
                Exponent: 65537 (0x10001)
        X509v3 extensions:
            X509v3 Basic Constraints: 
                CA:FALSE
            Netscape Comment: 
                OpenSSL Generated Certificate
            X509v3 Subject Key Identifier: 
                AD:BE:BC:B0:EF:56:2D:8A:F8:3E:D8:E9:DF:9A:8E:2C:8B:22:CC:8E
            X509v3 Authority Key Identifier: 
                keyid:30:D0:C5:44:8A:CB:88:D3:EC:18:54:33:A9:C4:79:3B:EA:1A:61:44
                DirName:/C=US/ST=NC/L=CALIFORNIA/O=OSCM/CN=vpc_VPN/emailAddress=support@os-cm.info
                serial:80:8B:6F:BB:7F:14:9B:87

    Signature Algorithm: md5WithRSAEncryption
        5c:c9:d3:e6:26:d8:4d:c3:0d:7e:66:e6:24:bc:10:fb:2e:f7:
        70:32:7b:c9:d2:28:a7:86:90:c1:6f:b4:81:91:f7:91:e6:2e:
        2d:88:94:c7:79:33:de:6d:ff:bb:bc:53:b6:23:b1:9d:58:ee:
        c6:e9:87:b3:23:ca:38:05:cc:2e:e7:c0:50:cb:10:60:0a:40:
        22:52:a2:b6:db:bb:f5:eb:4f:d1:17:6a:68:3d:94:b0:02:fe:
        bb:9b:7a:45:54:72:5c:8f:4e:a7:33:89:7c:ca:2d:95:2c:e4:
        10:11:6b:78:07:d3:63:a9:47:51:91:2b:cf:23:e9:e4:a3:6c:
        aa:dd
-----BEGIN CERTIFICATE-----
MIIDSTCCArKgAwIBAgIBHzANBgkqhkiG9w0BAQQFADBzMQswCQYDVQQGEwJVUzEL
MAkGA1UECBMCTkMxEzARBgNVBAcTCkNBTElGT1JOSUExDTALBgNVBAoTBE9TQ00x
EDAOBgNVBAMUB3ZwY19WUE4xITAfBgkqhkiG9w0BCQEWEnN1cHBvcnRAb3MtY20u
aW5mbzAeFw0xNDA1MDgxNjU1NDVaFw0yNDA1MDUxNjU1NDVaMFoxCzAJBgNVBAYT
AlVTMQswCQYDVQQIEwJOQzENMAsGA1UEChMET1NDTTEMMAoGA1UEAxMDZ2FsMSEw
HwYJKoZIhvcNAQkBFhJzdXBwb3J0QG9zLWNtLmluZm8wgZ8wDQYJKoZIhvcNAQEB
BQADgY0AMIGJAoGBAKrGn7zQDeBpQ48fvsxCsxzD/QDnm+k0ygCLOKYUgOTjzetq
0HncGfkdMDeOG2Hu7sMtc4B1ipFlFhPx41hGW5HhG84DgIl8lwQJSqH+I+3q83Xh
a4DoXIM2CEx1c4JheJCuXCs1T6jaeQ2iGVsUXbz0ylAZiM3ZAWjVf5jMQCa3AgMB
AAGjggEEMIIBADAJBgNVHRMEAjAAMCwGCWCGSAGG+EIBDQQfFh1PcGVuU1NMIEdl
bmVyYXRlZCBDZXJ0aWZpY2F0ZTAdBgNVHQ4EFgQUrb68sO9WLYr4Ptjp35qOLIsi
zI4wgaUGA1UdIwSBnTCBmoAUMNDFRIrLiNPsGFQzqcR5O+oaYUShd6R1MHMxCzAJ
BgNVBAYTAlVTMQswCQYDVQQIEwJOQzETMBEGA1UEBxMKQ0FMSUZPUk5JQTENMAsG
A1UEChMET1NDTTEQMA4GA1UEAxQHdnBjX1ZQTjEhMB8GCSqGSIb3DQEJARYSc3Vw
cG9ydEBvcy1jbS5pbmZvggkAgItvu38Um4cwDQYJKoZIhvcNAQEEBQADgYEAXMnT
5ibYTcMNfmbmJLwQ+y73cDJ7ydIop4aQwW+0gZH3keYuLYiUx3kz3m3/u7xTtiOx
nVjuxumHsyPKOAXMLufAUMsQYApAIlKittu79etP0RdqaD2UsAL+u5t6RVRyXI9O
pzOJfMotlSzkEBFreAfTY6lHUZErzyPp5KNsqt0=
-----END CERTIFICATE-----
