Certificate:
    Data:
        Version: 3 (0x2)
        Serial Number: 33 (0x21)
        Signature Algorithm: md5WithRSAEncryption
        Issuer: C=US, ST=NC, L=CALIFORNIA, O=OSCM, CN=vpc_VPN/emailAddress=support@os-cm.info
        Validity
            Not Before: Jun 17 19:04:57 2014 GMT
            Not After : Jun 14 19:04:57 2024 GMT
        Subject: C=US, ST=NC, O=OSCM, CN=shuky/emailAddress=support@os-cm.info
        Subject Public Key Info:
            Public Key Algorithm: rsaEncryption
                Public-Key: (1024 bit)
                Modulus:
                    00:cf:57:d7:d1:eb:59:99:e3:fc:c8:64:52:84:bc:
                    f4:cd:00:7f:d3:64:b1:a9:4f:bd:4f:6c:1b:ea:52:
                    00:49:0d:ed:a2:ed:c1:2b:c2:e3:41:2e:cf:35:bc:
                    b7:e5:19:68:ee:54:40:1d:91:23:31:c9:c7:c1:3e:
                    49:32:58:66:1f:99:eb:01:00:e1:36:46:b6:9d:0b:
                    e1:bc:37:74:95:7f:38:df:01:84:bc:d6:92:8e:a6:
                    7a:41:86:3e:3c:40:7b:14:63:09:6b:63:79:5b:0f:
                    74:a0:82:d7:01:a4:e2:5b:0a:5a:6a:67:50:9b:3a:
                    59:9e:b7:27:2c:ea:2d:a6:11
                Exponent: 65537 (0x10001)
        X509v3 extensions:
            X509v3 Basic Constraints: 
                CA:FALSE
            Netscape Comment: 
                OpenSSL Generated Certificate
            X509v3 Subject Key Identifier: 
                37:B7:57:13:A0:2C:6E:62:20:44:FA:2E:BA:01:B0:C2:04:D6:60:6F
            X509v3 Authority Key Identifier: 
                keyid:30:D0:C5:44:8A:CB:88:D3:EC:18:54:33:A9:C4:79:3B:EA:1A:61:44
                DirName:/C=US/ST=NC/L=CALIFORNIA/O=OSCM/CN=vpc_VPN/emailAddress=support@os-cm.info
                serial:80:8B:6F:BB:7F:14:9B:87

    Signature Algorithm: md5WithRSAEncryption
        d2:27:5f:f7:da:6e:1e:21:c8:91:4b:3f:dd:87:9c:84:df:8b:
        4d:78:77:f0:a5:52:b1:90:f3:4f:8a:a8:65:9a:e4:30:d7:28:
        91:b8:47:dd:10:f7:39:6b:00:20:49:9b:20:c9:2a:85:81:a1:
        aa:c5:70:74:03:70:80:4b:3f:71:41:84:d8:88:23:49:38:24:
        75:62:95:7a:f5:1c:d5:4e:cb:d5:78:fd:69:e4:3d:ec:da:95:
        92:6e:0e:9a:0e:dd:3f:83:1b:11:13:2a:19:ee:86:52:06:68:
        82:eb:ff:7d:c7:3f:45:1b:b0:6d:e8:f1:a0:e3:f5:76:86:07:
        37:28
-----BEGIN CERTIFICATE-----
MIIDSzCCArSgAwIBAgIBITANBgkqhkiG9w0BAQQFADBzMQswCQYDVQQGEwJVUzEL
MAkGA1UECBMCTkMxEzARBgNVBAcTCkNBTElGT1JOSUExDTALBgNVBAoTBE9TQ00x
EDAOBgNVBAMUB3ZwY19WUE4xITAfBgkqhkiG9w0BCQEWEnN1cHBvcnRAb3MtY20u
aW5mbzAeFw0xNDA2MTcxOTA0NTdaFw0yNDA2MTQxOTA0NTdaMFwxCzAJBgNVBAYT
AlVTMQswCQYDVQQIEwJOQzENMAsGA1UEChMET1NDTTEOMAwGA1UEAxMFc2h1a3kx
ITAfBgkqhkiG9w0BCQEWEnN1cHBvcnRAb3MtY20uaW5mbzCBnzANBgkqhkiG9w0B
AQEFAAOBjQAwgYkCgYEAz1fX0etZmeP8yGRShLz0zQB/02SxqU+9T2wb6lIASQ3t
ou3BK8LjQS7PNby35Rlo7lRAHZEjMcnHwT5JMlhmH5nrAQDhNka2nQvhvDd0lX84
3wGEvNaSjqZ6QYY+PEB7FGMJa2N5Ww90oILXAaTiWwpaamdQmzpZnrcnLOotphEC
AwEAAaOCAQQwggEAMAkGA1UdEwQCMAAwLAYJYIZIAYb4QgENBB8WHU9wZW5TU0wg
R2VuZXJhdGVkIENlcnRpZmljYXRlMB0GA1UdDgQWBBQ3t1cToCxuYiBE+i66AbDC
BNZgbzCBpQYDVR0jBIGdMIGagBQw0MVEisuI0+wYVDOpxHk76hphRKF3pHUwczEL
MAkGA1UEBhMCVVMxCzAJBgNVBAgTAk5DMRMwEQYDVQQHEwpDQUxJRk9STklBMQ0w
CwYDVQQKEwRPU0NNMRAwDgYDVQQDFAd2cGNfVlBOMSEwHwYJKoZIhvcNAQkBFhJz
dXBwb3J0QG9zLWNtLmluZm+CCQCAi2+7fxSbhzANBgkqhkiG9w0BAQQFAAOBgQDS
J1/32m4eIciRSz/dh5yE34tNeHfwpVKxkPNPiqhlmuQw1yiRuEfdEPc5awAgSZsg
ySqFgaGqxXB0A3CASz9xQYTYiCNJOCR1YpV69RzVTsvVeP1p5D3s2pWSbg6aDt0/
gxsREyoZ7oZSBmiC6/99xz9FG7Bt6PGg4/V2hgc3KA==
-----END CERTIFICATE-----
