Certificate:
    Data:
        Version: 3 (0x2)
        Serial Number: 38 (0x26)
        Signature Algorithm: md5WithRSAEncryption
        Issuer: C=US, ST=NC, L=CALIFORNIA, O=OSCM, CN=vpc_VPN/emailAddress=support@os-cm.info
        Validity
            Not Before: Sep 10 21:08:45 2014 GMT
            Not After : Sep  7 21:08:45 2024 GMT
        Subject: C=US, ST=NC, O=OSCM, CN=Daria/emailAddress=support@os-cm.info
        Subject Public Key Info:
            Public Key Algorithm: rsaEncryption
                Public-Key: (1024 bit)
                Modulus:
                    00:da:16:9c:8e:f0:0f:76:70:83:5a:cb:c0:f8:51:
                    fa:c2:56:d9:2f:8a:55:10:84:47:55:48:bc:c6:c8:
                    6b:2b:d5:e0:61:61:c6:03:df:e1:84:ed:03:de:eb:
                    bf:9e:7b:6c:36:5c:2e:29:c0:d5:a3:4b:0b:cc:80:
                    77:cd:ef:be:e3:02:cc:fa:02:1e:30:75:29:1b:45:
                    18:2c:5b:a3:f3:1b:1e:b5:39:11:95:ee:45:9a:ce:
                    e6:b0:1b:c1:21:70:8c:8a:a9:c1:9b:93:fc:d3:a4:
                    21:06:b8:ae:60:9c:bd:f0:81:ee:2b:37:f7:f7:84:
                    51:6a:15:ac:d4:5b:35:3d:45
                Exponent: 65537 (0x10001)
        X509v3 extensions:
            X509v3 Basic Constraints: 
                CA:FALSE
            Netscape Comment: 
                OpenSSL Generated Certificate
            X509v3 Subject Key Identifier: 
                38:44:CC:CF:9E:DC:37:CE:52:5A:6F:4C:19:03:FC:C2:D9:52:7D:78
            X509v3 Authority Key Identifier: 
                keyid:30:D0:C5:44:8A:CB:88:D3:EC:18:54:33:A9:C4:79:3B:EA:1A:61:44
                DirName:/C=US/ST=NC/L=CALIFORNIA/O=OSCM/CN=vpc_VPN/emailAddress=support@os-cm.info
                serial:80:8B:6F:BB:7F:14:9B:87

    Signature Algorithm: md5WithRSAEncryption
        cf:70:1f:d1:67:64:8e:cf:59:03:df:96:6c:20:f6:87:81:e9:
        e2:a9:85:e9:5a:84:ae:d2:5a:4b:90:68:c0:bf:f2:67:56:0b:
        ea:02:f9:6f:db:39:3b:91:38:40:c7:69:64:84:4a:e6:fa:a2:
        90:90:48:ec:72:2e:41:ff:01:be:d3:74:3f:79:02:44:5a:39:
        7f:d7:72:64:50:50:8a:98:f3:10:97:42:ca:4c:97:f4:51:66:
        00:00:85:b9:4d:c6:aa:c8:78:c0:cc:e6:3e:d0:1d:3b:da:c0:
        4c:cf:09:48:ec:80:fc:b7:31:63:cd:be:e8:93:83:40:e1:38:
        f5:49
-----BEGIN CERTIFICATE-----
MIIDSzCCArSgAwIBAgIBJjANBgkqhkiG9w0BAQQFADBzMQswCQYDVQQGEwJVUzEL
MAkGA1UECBMCTkMxEzARBgNVBAcTCkNBTElGT1JOSUExDTALBgNVBAoTBE9TQ00x
EDAOBgNVBAMUB3ZwY19WUE4xITAfBgkqhkiG9w0BCQEWEnN1cHBvcnRAb3MtY20u
aW5mbzAeFw0xNDA5MTAyMTA4NDVaFw0yNDA5MDcyMTA4NDVaMFwxCzAJBgNVBAYT
AlVTMQswCQYDVQQIEwJOQzENMAsGA1UEChMET1NDTTEOMAwGA1UEAxMFRGFyaWEx
ITAfBgkqhkiG9w0BCQEWEnN1cHBvcnRAb3MtY20uaW5mbzCBnzANBgkqhkiG9w0B
AQEFAAOBjQAwgYkCgYEA2hacjvAPdnCDWsvA+FH6wlbZL4pVEIRHVUi8xshrK9Xg
YWHGA9/hhO0D3uu/nntsNlwuKcDVo0sLzIB3ze++4wLM+gIeMHUpG0UYLFuj8xse
tTkRle5Fms7msBvBIXCMiqnBm5P806QhBriuYJy98IHuKzf394RRahWs1Fs1PUUC
AwEAAaOCAQQwggEAMAkGA1UdEwQCMAAwLAYJYIZIAYb4QgENBB8WHU9wZW5TU0wg
R2VuZXJhdGVkIENlcnRpZmljYXRlMB0GA1UdDgQWBBQ4RMzPntw3zlJab0wZA/zC
2VJ9eDCBpQYDVR0jBIGdMIGagBQw0MVEisuI0+wYVDOpxHk76hphRKF3pHUwczEL
MAkGA1UEBhMCVVMxCzAJBgNVBAgTAk5DMRMwEQYDVQQHEwpDQUxJRk9STklBMQ0w
CwYDVQQKEwRPU0NNMRAwDgYDVQQDFAd2cGNfVlBOMSEwHwYJKoZIhvcNAQkBFhJz
dXBwb3J0QG9zLWNtLmluZm+CCQCAi2+7fxSbhzANBgkqhkiG9w0BAQQFAAOBgQDP
cB/RZ2SOz1kD35ZsIPaHgeniqYXpWoSu0lpLkGjAv/JnVgvqAvlv2zk7kThAx2lk
hErm+qKQkEjsci5B/wG+03Q/eQJEWjl/13JkUFCKmPMQl0LKTJf0UWYAAIW5Tcaq
yHjAzOY+0B072sBMzwlI7ID8tzFjzb7ok4NA4Tj1SQ==
-----END CERTIFICATE-----
