Certificate:
    Data:
        Version: 3 (0x2)
        Serial Number: 23 (0x17)
        Signature Algorithm: md5WithRSAEncryption
        Issuer: C=US, ST=NC, L=CALIFORNIA, O=OSCM, CN=vpc_VPN/emailAddress=support@os-cm.info
        Validity
            Not Before: Jan 16 06:56:15 2013 GMT
            Not After : Jan 14 06:56:15 2023 GMT
        Subject: C=US, ST=NC, O=OSCM, CN=baum/emailAddress=support@opensourceinc.com
        Subject Public Key Info:
            Public Key Algorithm: rsaEncryption
                Public-Key: (1024 bit)
                Modulus:
                    00:d5:9c:9d:a3:d2:77:b5:f5:6e:4b:73:1d:de:7e:
                    0f:96:0e:65:8f:5e:cc:7b:ce:99:81:b2:46:59:ce:
                    3f:2f:99:6c:b5:04:c5:a1:16:d0:4d:14:be:06:e5:
                    42:d1:af:e2:40:5c:c7:4a:60:60:57:d2:a3:da:d4:
                    e2:a4:56:86:f7:81:76:34:c6:db:11:53:15:f4:44:
                    61:25:6a:22:20:94:bb:66:c1:15:17:65:84:6e:31:
                    85:3f:8f:30:e8:07:d4:29:a9:38:b2:cc:1d:39:f8:
                    b0:4b:08:51:ae:94:13:ee:77:61:1c:b2:9e:8f:5b:
                    ca:bd:33:1a:95:75:48:e4:4b
                Exponent: 65537 (0x10001)
        X509v3 extensions:
            X509v3 Basic Constraints: 
                CA:FALSE
            Netscape Comment: 
                OpenSSL Generated Certificate
            X509v3 Subject Key Identifier: 
                93:81:AF:A7:A9:92:BA:1C:33:C1:40:F2:5A:F0:73:2B:33:CC:0D:5F
            X509v3 Authority Key Identifier: 
                keyid:30:D0:C5:44:8A:CB:88:D3:EC:18:54:33:A9:C4:79:3B:EA:1A:61:44
                DirName:/C=US/ST=NC/L=CALIFORNIA/O=OSCM/CN=vpc_VPN/emailAddress=support@os-cm.info
                serial:80:8B:6F:BB:7F:14:9B:87

    Signature Algorithm: md5WithRSAEncryption
        c4:53:79:ad:9c:c7:6e:06:11:17:c7:e3:99:9d:49:a0:1c:06:
        e5:c0:97:9e:48:ab:c4:de:9f:12:4d:8b:ea:5a:b5:ae:52:56:
        c7:0a:58:63:99:ca:5c:5d:ea:df:71:c5:ba:fd:c2:5a:9b:ad:
        9e:b2:19:93:c2:dc:be:df:ab:d0:e4:ae:fd:78:67:ad:f9:7f:
        33:0a:e5:22:e8:35:12:aa:95:2d:f0:85:46:b9:f6:f7:88:04:
        39:a6:6a:f9:82:b7:9c:61:54:95:5b:54:db:d5:e6:56:dc:f3:
        3d:e4:0d:6f:16:91:e6:b8:db:fd:06:d0:40:86:6c:c7:a4:a4:
        83:42
-----BEGIN CERTIFICATE-----
MIIDUTCCArqgAwIBAgIBFzANBgkqhkiG9w0BAQQFADBzMQswCQYDVQQGEwJVUzEL
MAkGA1UECBMCTkMxEzARBgNVBAcTCkNBTElGT1JOSUExDTALBgNVBAoTBE9TQ00x
EDAOBgNVBAMUB3ZwY19WUE4xITAfBgkqhkiG9w0BCQEWEnN1cHBvcnRAb3MtY20u
aW5mbzAeFw0xMzAxMTYwNjU2MTVaFw0yMzAxMTQwNjU2MTVaMGIxCzAJBgNVBAYT
AlVTMQswCQYDVQQIEwJOQzENMAsGA1UEChMET1NDTTENMAsGA1UEAxMEYmF1bTEo
MCYGCSqGSIb3DQEJARYZc3VwcG9ydEBvcGVuc291cmNlaW5jLmNvbTCBnzANBgkq
hkiG9w0BAQEFAAOBjQAwgYkCgYEA1Zydo9J3tfVuS3Md3n4Plg5lj17Me86ZgbJG
Wc4/L5lstQTFoRbQTRS+BuVC0a/iQFzHSmBgV9Kj2tTipFaG94F2NMbbEVMV9ERh
JWoiIJS7ZsEVF2WEbjGFP48w6AfUKak4sswdOfiwSwhRrpQT7ndhHLKej1vKvTMa
lXVI5EsCAwEAAaOCAQQwggEAMAkGA1UdEwQCMAAwLAYJYIZIAYb4QgENBB8WHU9w
ZW5TU0wgR2VuZXJhdGVkIENlcnRpZmljYXRlMB0GA1UdDgQWBBSTga+nqZK6HDPB
QPJa8HMrM8wNXzCBpQYDVR0jBIGdMIGagBQw0MVEisuI0+wYVDOpxHk76hphRKF3
pHUwczELMAkGA1UEBhMCVVMxCzAJBgNVBAgTAk5DMRMwEQYDVQQHEwpDQUxJRk9S
TklBMQ0wCwYDVQQKEwRPU0NNMRAwDgYDVQQDFAd2cGNfVlBOMSEwHwYJKoZIhvcN
AQkBFhJzdXBwb3J0QG9zLWNtLmluZm+CCQCAi2+7fxSbhzANBgkqhkiG9w0BAQQF
AAOBgQDEU3mtnMduBhEXx+OZnUmgHAblwJeeSKvE3p8STYvqWrWuUlbHClhjmcpc
XerfccW6/cJam62eshmTwty+36vQ5K79eGet+X8zCuUi6DUSqpUt8IVGufb3iAQ5
pmr5grecYVSVW1Tb1eZW3PM95A1vFpHmuNv9BtBAhmzHpKSDQg==
-----END CERTIFICATE-----
