Certificate:
    Data:
        Version: 3 (0x2)
        Serial Number: 35 (0x23)
        Signature Algorithm: md5WithRSAEncryption
        Issuer: C=US, ST=NC, L=CALIFORNIA, O=OSCM, CN=vpc_VPN/emailAddress=support@os-cm.info
        Validity
            Not Before: Aug 22 20:38:59 2014 GMT
            Not After : Aug 19 20:38:59 2024 GMT
        Subject: C=US, ST=NC, O=OSCM, CN=dr-site/emailAddress=support@os-cm.info
        Subject Public Key Info:
            Public Key Algorithm: rsaEncryption
                Public-Key: (1024 bit)
                Modulus:
                    00:b3:e1:23:ed:ac:33:0e:ee:2e:53:69:a2:6c:b5:
                    81:34:f0:f1:67:23:40:ed:d5:f5:40:80:5b:12:58:
                    23:ab:7f:cb:80:13:bc:e9:66:27:93:4b:43:c0:e8:
                    bb:44:4a:71:e2:68:61:bf:26:28:f0:a1:c8:77:52:
                    93:6b:ef:1a:3e:2d:dd:43:ae:44:b1:35:f6:8f:02:
                    59:e7:ef:bb:87:be:f3:0c:35:87:c2:c2:d9:05:8c:
                    95:15:47:1e:c8:05:2f:c4:3f:1f:4b:9c:6d:56:37:
                    df:1a:05:f0:2d:9c:a3:6a:c2:25:cf:ae:39:9c:2c:
                    13:5b:30:f1:30:eb:8a:0d:23
                Exponent: 65537 (0x10001)
        X509v3 extensions:
            X509v3 Basic Constraints: 
                CA:FALSE
            Netscape Comment: 
                OpenSSL Generated Certificate
            X509v3 Subject Key Identifier: 
                4F:C4:10:02:91:23:09:B7:C5:40:D0:0D:59:10:D9:07:FF:6D:C1:24
            X509v3 Authority Key Identifier: 
                keyid:30:D0:C5:44:8A:CB:88:D3:EC:18:54:33:A9:C4:79:3B:EA:1A:61:44
                DirName:/C=US/ST=NC/L=CALIFORNIA/O=OSCM/CN=vpc_VPN/emailAddress=support@os-cm.info
                serial:80:8B:6F:BB:7F:14:9B:87

    Signature Algorithm: md5WithRSAEncryption
        cc:2d:db:5d:a4:b8:10:ad:95:81:aa:f0:66:32:9a:bc:c4:9f:
        01:5d:d2:41:f8:ce:d5:98:d8:c3:54:40:1a:a2:af:c1:48:5d:
        9e:d6:f9:4e:8a:bc:11:d3:9c:11:10:3a:24:eb:ec:c4:c2:c9:
        51:a5:ee:33:e2:59:f7:a5:68:da:c7:3f:39:87:3f:1f:cd:9f:
        d8:ba:64:37:be:b6:2f:1e:40:09:73:bd:af:90:71:6d:98:22:
        3d:f1:12:fc:ed:b4:a6:03:5d:62:2b:a7:4a:7c:0a:98:42:74:
        00:79:6c:e2:2a:df:65:0e:fb:06:d2:a9:bb:ba:f2:94:96:3a:
        cc:17
-----BEGIN CERTIFICATE-----
MIIDTTCCAragAwIBAgIBIzANBgkqhkiG9w0BAQQFADBzMQswCQYDVQQGEwJVUzEL
MAkGA1UECBMCTkMxEzARBgNVBAcTCkNBTElGT1JOSUExDTALBgNVBAoTBE9TQ00x
EDAOBgNVBAMUB3ZwY19WUE4xITAfBgkqhkiG9w0BCQEWEnN1cHBvcnRAb3MtY20u
aW5mbzAeFw0xNDA4MjIyMDM4NTlaFw0yNDA4MTkyMDM4NTlaMF4xCzAJBgNVBAYT
AlVTMQswCQYDVQQIEwJOQzENMAsGA1UEChMET1NDTTEQMA4GA1UEAxMHZHItc2l0
ZTEhMB8GCSqGSIb3DQEJARYSc3VwcG9ydEBvcy1jbS5pbmZvMIGfMA0GCSqGSIb3
DQEBAQUAA4GNADCBiQKBgQCz4SPtrDMO7i5TaaJstYE08PFnI0Dt1fVAgFsSWCOr
f8uAE7zpZieTS0PA6LtESnHiaGG/Jijwoch3UpNr7xo+Ld1DrkSxNfaPAlnn77uH
vvMMNYfCwtkFjJUVRx7IBS/EPx9LnG1WN98aBfAtnKNqwiXPrjmcLBNbMPEw64oN
IwIDAQABo4IBBDCCAQAwCQYDVR0TBAIwADAsBglghkgBhvhCAQ0EHxYdT3BlblNT
TCBHZW5lcmF0ZWQgQ2VydGlmaWNhdGUwHQYDVR0OBBYEFE/EEAKRIwm3xUDQDVkQ
2Qf/bcEkMIGlBgNVHSMEgZ0wgZqAFDDQxUSKy4jT7BhUM6nEeTvqGmFEoXekdTBz
MQswCQYDVQQGEwJVUzELMAkGA1UECBMCTkMxEzARBgNVBAcTCkNBTElGT1JOSUEx
DTALBgNVBAoTBE9TQ00xEDAOBgNVBAMUB3ZwY19WUE4xITAfBgkqhkiG9w0BCQEW
EnN1cHBvcnRAb3MtY20uaW5mb4IJAICLb7t/FJuHMA0GCSqGSIb3DQEBBAUAA4GB
AMwt212kuBCtlYGq8GYymrzEnwFd0kH4ztWY2MNUQBqir8FIXZ7W+U6KvBHTnBEQ
OiTr7MTCyVGl7jPiWfelaNrHPzmHPx/Nn9i6ZDe+ti8eQAlzva+QcW2YIj3xEvzt
tKYDXWIrp0p8CphCdAB5bOIq32UO+wbSqbu68pSWOswX
-----END CERTIFICATE-----
