Certificate:
    Data:
        Version: 3 (0x2)
        Serial Number: 20 (0x14)
        Signature Algorithm: md5WithRSAEncryption
        Issuer: C=US, ST=NC, L=CALIFORNIA, O=OSCM, CN=vpc_VPN/emailAddress=support@os-cm.info
        Validity
            Not Before: Aug  4 18:32:23 2012 GMT
            Not After : Aug  2 18:32:23 2022 GMT
        Subject: C=US, ST=NC, O=OSCM, CN=erez/emailAddress=support@os-cm.info
        Subject Public Key Info:
            Public Key Algorithm: rsaEncryption
                Public-Key: (1024 bit)
                Modulus:
                    00:b4:09:c0:85:32:6b:ff:d3:72:a8:75:3c:33:b5:
                    7b:70:65:1c:22:68:7e:ec:51:49:9f:13:ff:89:9d:
                    e9:96:f9:71:37:05:75:54:29:f1:e9:f3:4d:c3:16:
                    59:2a:dd:b6:60:bd:ff:0e:91:17:eb:d0:ab:29:07:
                    bd:76:01:c3:6c:63:59:17:36:aa:9c:c3:83:f2:f7:
                    2b:44:f7:7f:27:ab:df:d3:d3:62:79:01:db:ec:02:
                    d1:f4:53:52:59:f9:cd:ba:0f:4f:46:bd:96:3a:18:
                    ba:82:f2:74:5e:2f:05:84:d5:4c:73:30:3f:d3:99:
                    99:a7:26:67:1e:b7:f0:7b:4f
                Exponent: 65537 (0x10001)
        X509v3 extensions:
            X509v3 Basic Constraints: 
                CA:FALSE
            Netscape Comment: 
                OpenSSL Generated Certificate
            X509v3 Subject Key Identifier: 
                A1:38:E7:43:61:FA:85:A3:63:8F:90:5B:55:9A:70:BB:E0:70:A5:97
            X509v3 Authority Key Identifier: 
                keyid:30:D0:C5:44:8A:CB:88:D3:EC:18:54:33:A9:C4:79:3B:EA:1A:61:44
                DirName:/C=US/ST=NC/L=CALIFORNIA/O=OSCM/CN=vpc_VPN/emailAddress=support@os-cm.info
                serial:80:8B:6F:BB:7F:14:9B:87

    Signature Algorithm: md5WithRSAEncryption
        52:a0:f8:af:fe:f9:01:fa:51:c6:4e:34:34:83:96:f6:2d:c0:
        ea:c2:27:61:da:5c:dc:57:89:b4:14:e7:90:21:88:69:31:2d:
        1f:54:89:a3:d3:05:db:d6:bb:4c:e7:4f:a1:73:51:d7:9e:0b:
        e0:ba:7b:cc:a1:6f:eb:65:68:02:8d:f0:72:d9:1d:10:55:15:
        99:c4:6d:a3:e9:6d:ca:60:55:e4:9b:fd:39:77:98:b2:6a:89:
        90:88:49:21:94:64:86:48:2d:56:ee:a0:0f:0b:91:42:30:3b:
        d1:db:65:cf:c1:30:d0:14:02:5e:43:11:de:d6:26:ce:00:b7:
        a9:b3
-----BEGIN CERTIFICATE-----
MIIDSjCCArOgAwIBAgIBFDANBgkqhkiG9w0BAQQFADBzMQswCQYDVQQGEwJVUzEL
MAkGA1UECBMCTkMxEzARBgNVBAcTCkNBTElGT1JOSUExDTALBgNVBAoTBE9TQ00x
EDAOBgNVBAMUB3ZwY19WUE4xITAfBgkqhkiG9w0BCQEWEnN1cHBvcnRAb3MtY20u
aW5mbzAeFw0xMjA4MDQxODMyMjNaFw0yMjA4MDIxODMyMjNaMFsxCzAJBgNVBAYT
AlVTMQswCQYDVQQIEwJOQzENMAsGA1UEChMET1NDTTENMAsGA1UEAxMEZXJlejEh
MB8GCSqGSIb3DQEJARYSc3VwcG9ydEBvcy1jbS5pbmZvMIGfMA0GCSqGSIb3DQEB
AQUAA4GNADCBiQKBgQC0CcCFMmv/03KodTwztXtwZRwiaH7sUUmfE/+JnemW+XE3
BXVUKfHp803DFlkq3bZgvf8OkRfr0KspB712AcNsY1kXNqqcw4Py9ytE938nq9/T
02J5AdvsAtH0U1JZ+c26D09GvZY6GLqC8nReLwWE1UxzMD/TmZmnJmcet/B7TwID
AQABo4IBBDCCAQAwCQYDVR0TBAIwADAsBglghkgBhvhCAQ0EHxYdT3BlblNTTCBH
ZW5lcmF0ZWQgQ2VydGlmaWNhdGUwHQYDVR0OBBYEFKE450Nh+oWjY4+QW1WacLvg
cKWXMIGlBgNVHSMEgZ0wgZqAFDDQxUSKy4jT7BhUM6nEeTvqGmFEoXekdTBzMQsw
CQYDVQQGEwJVUzELMAkGA1UECBMCTkMxEzARBgNVBAcTCkNBTElGT1JOSUExDTAL
BgNVBAoTBE9TQ00xEDAOBgNVBAMUB3ZwY19WUE4xITAfBgkqhkiG9w0BCQEWEnN1
cHBvcnRAb3MtY20uaW5mb4IJAICLb7t/FJuHMA0GCSqGSIb3DQEBBAUAA4GBAFKg
+K/++QH6UcZONDSDlvYtwOrCJ2HaXNxXibQU55AhiGkxLR9UiaPTBdvWu0znT6Fz
UdeeC+C6e8yhb+tlaAKN8HLZHRBVFZnEbaPpbcpgVeSb/Tl3mLJqiZCISSGUZIZI
LVbuoA8LkUIwO9HbZc/BMNAUAl5DEd7WJs4At6mz
-----END CERTIFICATE-----
