Certificate:
    Data:
        Version: 3 (0x2)
        Serial Number: 8 (0x8)
        Signature Algorithm: md5WithRSAEncryption
        Issuer: C=US, ST=NC, L=CALIFORNIA, O=OSCM, CN=vpc_VPN/emailAddress=support@os-cm.info
        Validity
            Not Before: Jun 26 11:28:21 2012 GMT
            Not After : Jun 24 11:28:21 2022 GMT
        Subject: C=US, ST=NC, O=OSCM, CN=fe/emailAddress=support@os-cm.info
        Subject Public Key Info:
            Public Key Algorithm: rsaEncryption
                Public-Key: (1024 bit)
                Modulus:
                    00:b0:fd:44:3c:bc:b0:bc:7e:83:b8:17:b0:61:7f:
                    8b:89:8a:49:b3:ad:94:ae:60:aa:c3:45:d2:8a:82:
                    73:cd:21:db:37:33:b9:4e:99:1b:57:e5:89:7d:63:
                    70:6c:4a:c3:94:58:0d:c7:1f:04:09:3f:d5:12:54:
                    56:60:c0:1c:9c:47:62:33:d0:03:bd:3e:f1:48:3e:
                    c2:da:98:a0:da:05:5c:ff:d6:f5:dc:78:80:a6:0e:
                    45:6b:63:0e:ad:99:66:2f:a1:4a:01:01:3f:89:6a:
                    a9:59:bb:e7:09:a6:81:53:98:43:ab:38:3d:62:10:
                    6d:2f:b9:09:55:a1:02:20:bf
                Exponent: 65537 (0x10001)
        X509v3 extensions:
            X509v3 Basic Constraints: 
                CA:FALSE
            Netscape Comment: 
                OpenSSL Generated Certificate
            X509v3 Subject Key Identifier: 
                3C:05:39:B5:A9:41:9B:13:A6:16:E7:05:C9:B8:38:14:DB:3F:53:5E
            X509v3 Authority Key Identifier: 
                keyid:30:D0:C5:44:8A:CB:88:D3:EC:18:54:33:A9:C4:79:3B:EA:1A:61:44
                DirName:/C=US/ST=NC/L=CALIFORNIA/O=OSCM/CN=vpc_VPN/emailAddress=support@os-cm.info
                serial:80:8B:6F:BB:7F:14:9B:87

    Signature Algorithm: md5WithRSAEncryption
        45:da:08:61:81:bf:28:ff:5d:b8:c3:4d:83:9d:67:d4:74:7e:
        83:80:ff:4a:7b:04:84:af:a0:fc:7a:62:ff:dd:1c:f2:24:5c:
        9a:d9:0f:fb:d9:cf:c7:ff:f9:61:a5:5a:1f:98:06:19:93:52:
        90:52:98:e4:7c:5c:c1:d3:49:5e:69:c5:ae:b1:4c:cd:74:9d:
        63:06:a1:17:75:7d:73:52:5e:9d:f4:b4:9b:c7:6f:3d:6b:82:
        8e:ea:0f:7d:93:6a:ec:bf:4f:56:8e:39:df:5d:26:1f:2d:db:
        45:b1:35:d5:bf:1b:40:76:01:3d:8b:59:93:0c:ff:1c:3c:5f:
        78:97
-----BEGIN CERTIFICATE-----
MIIDSDCCArGgAwIBAgIBCDANBgkqhkiG9w0BAQQFADBzMQswCQYDVQQGEwJVUzEL
MAkGA1UECBMCTkMxEzARBgNVBAcTCkNBTElGT1JOSUExDTALBgNVBAoTBE9TQ00x
EDAOBgNVBAMUB3ZwY19WUE4xITAfBgkqhkiG9w0BCQEWEnN1cHBvcnRAb3MtY20u
aW5mbzAeFw0xMjA2MjYxMTI4MjFaFw0yMjA2MjQxMTI4MjFaMFkxCzAJBgNVBAYT
AlVTMQswCQYDVQQIEwJOQzENMAsGA1UEChMET1NDTTELMAkGA1UEAxMCZmUxITAf
BgkqhkiG9w0BCQEWEnN1cHBvcnRAb3MtY20uaW5mbzCBnzANBgkqhkiG9w0BAQEF
AAOBjQAwgYkCgYEAsP1EPLywvH6DuBewYX+LiYpJs62UrmCqw0XSioJzzSHbNzO5
TpkbV+WJfWNwbErDlFgNxx8ECT/VElRWYMAcnEdiM9ADvT7xSD7C2pig2gVc/9b1
3HiApg5Fa2MOrZlmL6FKAQE/iWqpWbvnCaaBU5hDqzg9YhBtL7kJVaECIL8CAwEA
AaOCAQQwggEAMAkGA1UdEwQCMAAwLAYJYIZIAYb4QgENBB8WHU9wZW5TU0wgR2Vu
ZXJhdGVkIENlcnRpZmljYXRlMB0GA1UdDgQWBBQ8BTm1qUGbE6YW5wXJuDgU2z9T
XjCBpQYDVR0jBIGdMIGagBQw0MVEisuI0+wYVDOpxHk76hphRKF3pHUwczELMAkG
A1UEBhMCVVMxCzAJBgNVBAgTAk5DMRMwEQYDVQQHEwpDQUxJRk9STklBMQ0wCwYD
VQQKEwRPU0NNMRAwDgYDVQQDFAd2cGNfVlBOMSEwHwYJKoZIhvcNAQkBFhJzdXBw
b3J0QG9zLWNtLmluZm+CCQCAi2+7fxSbhzANBgkqhkiG9w0BAQQFAAOBgQBF2ghh
gb8o/124w02DnWfUdH6DgP9KewSEr6D8emL/3RzyJFya2Q/72c/H//lhpVofmAYZ
k1KQUpjkfFzB00leacWusUzNdJ1jBqEXdX1zUl6d9LSbx289a4KO6g99k2rsv09W
jjnfXSYfLdtFsTXVvxtAdgE9i1mTDP8cPF94lw==
-----END CERTIFICATE-----
