Certificate:
    Data:
        Version: 3 (0x2)
        Serial Number: 12 (0xc)
        Signature Algorithm: md5WithRSAEncryption
        Issuer: C=US, ST=NC, L=CALIFORNIA, O=OSCM, CN=vpc_VPN/emailAddress=support@os-cm.info
        Validity
            Not Before: Jun 30 15:54:18 2012 GMT
            Not After : Jun 28 15:54:18 2022 GMT
        Subject: C=US, ST=NC, O=OSCM, CN=mark/emailAddress=support@os-cm.info
        Subject Public Key Info:
            Public Key Algorithm: rsaEncryption
                Public-Key: (1024 bit)
                Modulus:
                    00:9b:67:f5:5d:b7:31:2b:d7:02:e3:9a:05:3a:63:
                    b9:25:48:8d:04:85:e8:d3:24:2e:4a:b0:e3:9a:ff:
                    52:1e:75:10:a2:54:0a:5b:0a:94:8e:a3:0a:dd:72:
                    bf:2d:62:71:6c:9b:ee:13:8d:fb:7b:d4:7f:14:5a:
                    73:8d:95:7c:f7:3f:53:c6:e2:a4:39:12:e0:d8:3e:
                    ae:97:d5:13:5b:30:af:bc:cb:d2:07:30:5e:e7:83:
                    f4:16:2e:af:1f:b8:00:eb:c0:0e:15:77:29:d8:49:
                    9f:54:01:79:f4:a4:68:59:47:09:49:17:db:85:37:
                    b3:7a:ca:0e:67:b1:26:29:8f
                Exponent: 65537 (0x10001)
        X509v3 extensions:
            X509v3 Basic Constraints: 
                CA:FALSE
            Netscape Comment: 
                OpenSSL Generated Certificate
            X509v3 Subject Key Identifier: 
                9F:21:EB:A8:EA:3F:A7:CF:53:7F:20:EE:37:9A:10:94:FB:C5:18:6A
            X509v3 Authority Key Identifier: 
                keyid:30:D0:C5:44:8A:CB:88:D3:EC:18:54:33:A9:C4:79:3B:EA:1A:61:44
                DirName:/C=US/ST=NC/L=CALIFORNIA/O=OSCM/CN=vpc_VPN/emailAddress=support@os-cm.info
                serial:80:8B:6F:BB:7F:14:9B:87

    Signature Algorithm: md5WithRSAEncryption
        3d:ef:df:78:ca:ae:12:3e:96:d4:a7:d2:cd:80:92:c4:e6:45:
        2f:7c:ef:d2:9e:4b:c0:a3:b8:97:18:16:79:f4:07:a5:7e:d4:
        5d:a8:c9:83:15:6f:66:49:ea:d0:5d:38:79:52:27:b8:fd:20:
        9c:c0:8f:27:02:b4:c8:f8:71:71:dc:21:5d:0a:09:89:97:d8:
        f4:38:c2:0c:63:86:1f:63:c5:df:f8:d8:88:ed:2a:89:e5:29:
        cf:84:40:19:a4:61:b9:d4:65:31:1d:61:a7:a8:6b:7a:ac:9a:
        da:8e:97:61:0c:4f:aa:19:ec:06:cf:ea:ce:31:ac:cf:45:b4:
        2a:38
-----BEGIN CERTIFICATE-----
MIIDSjCCArOgAwIBAgIBDDANBgkqhkiG9w0BAQQFADBzMQswCQYDVQQGEwJVUzEL
MAkGA1UECBMCTkMxEzARBgNVBAcTCkNBTElGT1JOSUExDTALBgNVBAoTBE9TQ00x
EDAOBgNVBAMUB3ZwY19WUE4xITAfBgkqhkiG9w0BCQEWEnN1cHBvcnRAb3MtY20u
aW5mbzAeFw0xMjA2MzAxNTU0MThaFw0yMjA2MjgxNTU0MThaMFsxCzAJBgNVBAYT
AlVTMQswCQYDVQQIEwJOQzENMAsGA1UEChMET1NDTTENMAsGA1UEAxMEbWFyazEh
MB8GCSqGSIb3DQEJARYSc3VwcG9ydEBvcy1jbS5pbmZvMIGfMA0GCSqGSIb3DQEB
AQUAA4GNADCBiQKBgQCbZ/VdtzEr1wLjmgU6Y7klSI0EhejTJC5KsOOa/1IedRCi
VApbCpSOowrdcr8tYnFsm+4Tjft71H8UWnONlXz3P1PG4qQ5EuDYPq6X1RNbMK+8
y9IHMF7ng/QWLq8fuADrwA4VdynYSZ9UAXn0pGhZRwlJF9uFN7N6yg5nsSYpjwID
AQABo4IBBDCCAQAwCQYDVR0TBAIwADAsBglghkgBhvhCAQ0EHxYdT3BlblNTTCBH
ZW5lcmF0ZWQgQ2VydGlmaWNhdGUwHQYDVR0OBBYEFJ8h66jqP6fPU38g7jeaEJT7
xRhqMIGlBgNVHSMEgZ0wgZqAFDDQxUSKy4jT7BhUM6nEeTvqGmFEoXekdTBzMQsw
CQYDVQQGEwJVUzELMAkGA1UECBMCTkMxEzARBgNVBAcTCkNBTElGT1JOSUExDTAL
BgNVBAoTBE9TQ00xEDAOBgNVBAMUB3ZwY19WUE4xITAfBgkqhkiG9w0BCQEWEnN1
cHBvcnRAb3MtY20uaW5mb4IJAICLb7t/FJuHMA0GCSqGSIb3DQEBBAUAA4GBAD3v
33jKrhI+ltSn0s2AksTmRS9879KeS8CjuJcYFnn0B6V+1F2oyYMVb2ZJ6tBdOHlS
J7j9IJzAjycCtMj4cXHcIV0KCYmX2PQ4wgxjhh9jxd/42IjtKonlKc+EQBmkYbnU
ZTEdYaeoa3qsmtqOl2EMT6oZ7AbP6s4xrM9FtCo4
-----END CERTIFICATE-----
