Certificate:
    Data:
        Version: 3 (0x2)
        Serial Number: 37 (0x25)
        Signature Algorithm: md5WithRSAEncryption
        Issuer: C=US, ST=NC, L=CALIFORNIA, O=OSCM, CN=vpc_VPN/emailAddress=support@os-cm.info
        Validity
            Not Before: Sep  5 11:29:33 2014 GMT
            Not After : Sep  2 11:29:33 2024 GMT
        Subject: C=US, ST=NC, O=OSCM, CN=nadav/emailAddress=support@os-cm.info
        Subject Public Key Info:
            Public Key Algorithm: rsaEncryption
                Public-Key: (1024 bit)
                Modulus:
                    00:b1:99:54:cc:43:8e:e6:25:c5:ca:8e:c4:0c:77:
                    1d:d7:fa:ab:5c:df:39:d8:30:72:e8:f8:9a:eb:12:
                    48:df:31:6c:86:41:07:6a:3d:51:26:4e:9d:74:be:
                    d9:c3:7e:4e:9d:44:ac:da:fd:85:d1:76:d5:4a:01:
                    24:82:e0:44:58:7a:e0:42:55:5a:44:6c:f6:d4:06:
                    a2:36:22:b9:44:96:b5:3c:78:7b:a5:33:a2:26:93:
                    89:ba:ed:2d:3a:0b:c7:60:4f:74:5a:7d:55:07:7f:
                    5f:86:3f:27:49:56:7f:21:25:f2:b4:55:76:43:c8:
                    eb:01:ce:23:08:51:59:d1:79
                Exponent: 65537 (0x10001)
        X509v3 extensions:
            X509v3 Basic Constraints: 
                CA:FALSE
            Netscape Comment: 
                OpenSSL Generated Certificate
            X509v3 Subject Key Identifier: 
                C1:B1:EE:E6:49:8E:70:C1:FE:2A:87:7F:32:6F:A7:2A:00:F0:F7:D3
            X509v3 Authority Key Identifier: 
                keyid:30:D0:C5:44:8A:CB:88:D3:EC:18:54:33:A9:C4:79:3B:EA:1A:61:44
                DirName:/C=US/ST=NC/L=CALIFORNIA/O=OSCM/CN=vpc_VPN/emailAddress=support@os-cm.info
                serial:80:8B:6F:BB:7F:14:9B:87

    Signature Algorithm: md5WithRSAEncryption
        b7:24:e7:ef:02:9a:96:d5:57:db:e9:57:6e:e9:4d:0b:76:8d:
        c8:46:c7:7a:c0:94:79:88:0e:6d:cc:ea:4a:14:b4:f8:89:ce:
        35:3e:f7:b3:7b:82:63:89:03:9f:a8:27:cd:3e:99:bb:b7:ae:
        b6:b2:4a:63:a3:32:bc:79:93:99:01:25:9c:bd:00:a0:c2:31:
        ee:e1:fe:d6:b8:1d:d2:0e:0d:d5:27:4d:20:38:65:ef:4a:96:
        f1:0e:9c:3c:be:e8:f4:97:d3:c4:9e:17:38:f0:6c:10:67:e4:
        bc:46:74:43:fe:4e:7a:5d:01:52:b5:00:9d:d7:b3:6a:f5:15:
        27:61
-----BEGIN CERTIFICATE-----
MIIDSzCCArSgAwIBAgIBJTANBgkqhkiG9w0BAQQFADBzMQswCQYDVQQGEwJVUzEL
MAkGA1UECBMCTkMxEzARBgNVBAcTCkNBTElGT1JOSUExDTALBgNVBAoTBE9TQ00x
EDAOBgNVBAMUB3ZwY19WUE4xITAfBgkqhkiG9w0BCQEWEnN1cHBvcnRAb3MtY20u
aW5mbzAeFw0xNDA5MDUxMTI5MzNaFw0yNDA5MDIxMTI5MzNaMFwxCzAJBgNVBAYT
AlVTMQswCQYDVQQIEwJOQzENMAsGA1UEChMET1NDTTEOMAwGA1UEAxMFbmFkYXYx
ITAfBgkqhkiG9w0BCQEWEnN1cHBvcnRAb3MtY20uaW5mbzCBnzANBgkqhkiG9w0B
AQEFAAOBjQAwgYkCgYEAsZlUzEOO5iXFyo7EDHcd1/qrXN852DBy6Pia6xJI3zFs
hkEHaj1RJk6ddL7Zw35OnUSs2v2F0XbVSgEkguBEWHrgQlVaRGz21AaiNiK5RJa1
PHh7pTOiJpOJuu0tOgvHYE90Wn1VB39fhj8nSVZ/ISXytFV2Q8jrAc4jCFFZ0XkC
AwEAAaOCAQQwggEAMAkGA1UdEwQCMAAwLAYJYIZIAYb4QgENBB8WHU9wZW5TU0wg
R2VuZXJhdGVkIENlcnRpZmljYXRlMB0GA1UdDgQWBBTBse7mSY5wwf4qh38yb6cq
APD30zCBpQYDVR0jBIGdMIGagBQw0MVEisuI0+wYVDOpxHk76hphRKF3pHUwczEL
MAkGA1UEBhMCVVMxCzAJBgNVBAgTAk5DMRMwEQYDVQQHEwpDQUxJRk9STklBMQ0w
CwYDVQQKEwRPU0NNMRAwDgYDVQQDFAd2cGNfVlBOMSEwHwYJKoZIhvcNAQkBFhJz
dXBwb3J0QG9zLWNtLmluZm+CCQCAi2+7fxSbhzANBgkqhkiG9w0BAQQFAAOBgQC3
JOfvApqW1Vfb6Vdu6U0Ldo3IRsd6wJR5iA5tzOpKFLT4ic41Pveze4JjiQOfqCfN
Ppm7t662skpjozK8eZOZASWcvQCgwjHu4f7WuB3SDg3VJ00gOGXvSpbxDpw8vuj0
l9PEnhc48GwQZ+S8RnRD/k56XQFStQCd17Nq9RUnYQ==
-----END CERTIFICATE-----
